L251 LINKER/LOCATER V4.66.93.0                                                          10/29/2024  08:37:11  PAGE 1


L251 LINKER/LOCATER V4.66.93.0, INVOKED BY:
D:\PROGRAM FILES\KEIL5\C251\BIN\L251.EXE .\Output\main.obj, .\Output\stc32_it.obj, .\Output\SYSTEM.obj, .\Output\CONFIG.
>> obj, .\Output\lcd.obj, .\Output\Adjust.obj, .\Output\multi_menu.obj, .\Output\WAVE.obj, .\Output\ALARM.obj, .\Output\
>> FILTERING.obj, .\Output\lcd_init.obj, .\Output\bsp_adc.obj, .\Output\base_key.obj, .\Output\TIME.obj, .\Output\spi.ob
>> j, .\Output\PWM.obj, .\Output\BUZZER.obj, .\Output\STC32G_EEPROM.obj TO .\Output\project PRINT (.\Listings\project.ma
>> p) CASE CLASSES (EDATA (0X0-0X7FF), HDATA (0X0-0X7FF))


CPU MODE:     251 SOURCE MODE
INTR FRAME:   4 BYTES SAVED ON INTERRUPT
MEMORY MODEL: XSMALL WITH FLOATING POINT ARITHMETIC


INPUT MODULES INCLUDED:
  .\Output\main.obj (main)
         COMMENT TYPE 0: C251 V5.60.0
  .\Output\stc32_it.obj (stc32_it)
         COMMENT TYPE 0: C251 V5.60.0
  .\Output\SYSTEM.obj (SYSTEM)
         COMMENT TYPE 0: C251 V5.60.0
  .\Output\CONFIG.obj (CONFIG)
         COMMENT TYPE 0: C251 V5.60.0
  .\Output\lcd.obj (lcd)
         COMMENT TYPE 0: C251 V5.60.0
  .\Output\Adjust.obj (Adjust)
         COMMENT TYPE 0: C251 V5.60.0
  .\Output\multi_menu.obj (multi_menu)
         COMMENT TYPE 0: C251 V5.60.0
  .\Output\WAVE.obj (WAVE)
         COMMENT TYPE 0: C251 V5.60.0
  .\Output\ALARM.obj (ALARM)
         COMMENT TYPE 0: C251 V5.60.0
  .\Output\FILTERING.obj (FILTERING)
         COMMENT TYPE 0: C251 V5.60.0
  .\Output\lcd_init.obj (lcd_init)
         COMMENT TYPE 0: C251 V5.60.0
  .\Output\bsp_adc.obj (bsp_adc)
         COMMENT TYPE 0: C251 V5.60.0
  .\Output\base_key.obj (base_key)
         COMMENT TYPE 0: C251 V5.60.0
  .\Output\TIME.obj (TIME)
         COMMENT TYPE 0: C251 V5.60.0
  .\Output\spi.obj (spi)
         COMMENT TYPE 0: C251 V5.60.0
  .\Output\PWM.obj (PWM)
         COMMENT TYPE 0: C251 V5.60.0
  .\Output\BUZZER.obj (BUZZER)
         COMMENT TYPE 0: C251 V5.60.0
  .\Output\STC32G_EEPROM.obj (STC32G_EEPROM)
         COMMENT TYPE 0: C251 V5.60.0
  D:\PROGRAM FILES\KEIL5\C251\LIB\C2SFPXS.LIB (?C?FPADD)
         COMMENT TYPE 0: A251 V4.69.6.0
  D:\PROGRAM FILES\KEIL5\C251\LIB\C2SFPXS.LIB (?C?FPMUL)
         COMMENT TYPE 0: A251 V4.69.6.0
  D:\PROGRAM FILES\KEIL5\C251\LIB\C2SFPXS.LIB (?C?FPDIV)
         COMMENT TYPE 0: A251 V4.69.6.0
  D:\PROGRAM FILES\KEIL5\C251\LIB\C2SFPXS.LIB (?C?FPCMP)
         COMMENT TYPE 0: A251 V4.69.6.0
  D:\PROGRAM FILES\KEIL5\C251\LIB\C2SFPXS.LIB (?C?FCAST)
         COMMENT TYPE 0: A251 V4.69.6.0
  D:\PROGRAM FILES\KEIL5\C251\LIB\C2SFPXS.LIB (?C?CASTF)
         COMMENT TYPE 0: A251 V4.69.6.0
  D:\PROGRAM FILES\KEIL5\C251\LIB\C2SFPXS.LIB (?C?FPGETOPN)
         COMMENT TYPE 0: A251 V4.69.6.0
  D:\PROGRAM FILES\KEIL5\C251\LIB\C2SXS.LIB (?C_START)
         COMMENT TYPE 0: A251 V4.69.6.0
L251 LINKER/LOCATER V4.66.93.0                                                        10/29/2024  08:37:11  PAGE 2


  D:\PROGRAM FILES\KEIL5\C251\LIB\C2SXS.LIB (?C?INITEDATA)
         COMMENT TYPE 0: A251 V4.69.6.0
  D:\PROGRAM FILES\KEIL5\C251\LIB\C2SXS.LIB (?C?INITHDATA)
         COMMENT TYPE 0: A251 V4.69.6.0
  D:\PROGRAM FILES\KEIL5\C251\LIB\C2SXS.LIB (?C?SIDIV)
         COMMENT TYPE 0: A251 V4.69.6.0
  D:\PROGRAM FILES\KEIL5\C251\LIB\C2SXS.LIB (?C?LMUL)
         COMMENT TYPE 0: A251 V4.69.6.0
  D:\PROGRAM FILES\KEIL5\C251\LIB\C2SXS.LIB (?C?ULDIV)
         COMMENT TYPE 0: A251 V4.69.6.0
  D:\PROGRAM FILES\KEIL5\C251\LIB\C2SXS.LIB (?C?INITEDATA_END)
         COMMENT TYPE 0: A251 V4.69.6.0
  D:\PROGRAM FILES\KEIL5\C251\LIB\C2SXS.LIB (?C?INITHDATA_END)
         COMMENT TYPE 0: A251 V4.69.6.0


ACTIVE MEMORY CLASSES OF MODULE:  .\Output\project (main)

BASE        START       END         USED      MEMORY CLASS
==========================================================
000000H     000000H     0007FFH     000395H   EDATA
000000H     000000H     0007FFH               HDATA
FF0000H     FF0000H     FFFFFFH     009CCBH   CODE
000000H     FF0000H     FFFFFFH     000304H   HCONST
010000H     010000H     01FFFFH     000050H   XDATA
000020H.0   000020H.0   00002FH.7   000000H.6 BIT
000000H     000000H     00007FH     000008H   DATA


MEMORY MAP OF MODULE:  .\Output\project (main)


START     STOP      LENGTH    ALIGN  RELOC    MEMORY CLASS   SEGMENT NAME
=========================================================================
000000H   000007H   000008H   ---    AT..     DATA           "REG BANK 0"
000008H   00001FH   000018H   BYTE   UNIT     EDATA          ?ED?MAIN
000020H.0 000020H.4 000000H.5 BIT    UNIT     BIT            ?BI?PWM
000020H.5 000020H.5 000000H.1 BIT    UNIT     BIT            ?BI?WAVE?WAVE
000020H.6 000020H   000000H.2 ---    ---      **GAP**
000021H   00010EH   0000EEH   BYTE   UNIT     EDATA          ?ED?MULTI_MENU
00010FH   000152H   000044H   BYTE   UNIT     EDATA          ?ED?ALARM
000153H   00017EH   00002CH   BYTE   UNIT     EDATA          ?ED?SYSTEM
00017FH   00019DH   00001FH   BYTE   UNIT     EDATA          _EDATA_GROUP_
00019EH   0001B4H   000017H   BYTE   UNIT     EDATA          ?ED?ADJUST
0001B5H   0001C9H   000015H   BYTE   UNIT     EDATA          ?ED?LCD_SHOWCHINESE12X12?LCD
0001CAH   0001DEH   000015H   BYTE   UNIT     EDATA          ?ED?LCD_SHOWCHINESE16X16?LCD
0001DFH   0001F3H   000015H   BYTE   UNIT     EDATA          ?ED?LCD_SHOWCHINESE24X24?LCD
0001F4H   000208H   000015H   BYTE   UNIT     EDATA          ?ED?LCD_SHOWCHINESE32X32?LCD
000209H   00021AH   000012H   BYTE   UNIT     EDATA          ?ED?LCD_DRAWLINE?LCD
00021BH   00022BH   000011H   BYTE   UNIT     EDATA          ?ED?LCD_SHOWCHAR1?LCD
00022CH   00023CH   000011H   BYTE   UNIT     EDATA          ?ED?BASE_KEY
00023DH   00024AH   00000EH   BYTE   UNIT     EDATA          ?ED?LCD_SHOWFLOATNUM?LCD
00024BH   000258H   00000EH   BYTE   UNIT     EDATA          ?ED?BUZZER
000259H   000264H   00000CH   BYTE   UNIT     EDATA          ?ED?LCD_SHOWINTNUM?LCD
000265H   000270H   00000CH   BYTE   UNIT     EDATA          ?ED?LCD_SHOWPICTURE?LCD
000271H   00027BH   00000BH   BYTE   UNIT     EDATA          ?ED?LCD_SHOWFLOATNUM1?LCD
00027CH   000285H   00000AH   BYTE   UNIT     EDATA          ?ED?LCD_SHOWCHINESE?LCD
000286H   00028DH   000008H   BYTE   UNIT     EDATA          ?ED?PWM
00028EH   000294H   000007H   BYTE   UNIT     EDATA          ?ED?DRAW_CIRCLE?LCD
000295H   00029AH   000006H   BYTE   UNIT     EDATA          ?ED?LCD_DRAWRECTANGLE?LCD
00029BH   00029CH   000002H   BYTE   UNIT     EDATA          ?ED?HANDLEALARM?ALARM
00029DH   00029DH   000001H   BYTE   UNIT     EDATA          ?ED?WAVE
00029EH   00039DH   000100H   BYTE   UNIT     EDATA          ?STACK
00039EH   00FFFFH   00FC62H   ---    ---      **GAP**
010000H   01004FH   000050H   BYTE   INSEG    XDATA          ?XD?WAVE
L251 LINKER/LOCATER V4.66.93.0                                                        10/29/2024  08:37:11  PAGE 3


010050H   FEFFFFH   FDFFB0H   ---    ---      **GAP**
FF0000H   FF0002H   000003H   ---    OFFS..   CODE           ?CO?start251?4
FF0003H   FF0005H   000003H   BYTE   INSEG    CODE           ?PR?LCD_WR_DATA8?LCD_INIT
FF0006H   FF0008H   000003H   BYTE   INSEG    CODE           ?PR?LCD_WR_REG?LCD_INIT
FF0009H   FF0009H   000001H   BYTE   INSEG    CODE           ?PR?POWER?SYSTEM
FF000AH   FF000AH   000001H   BYTE   INSEG    CODE           ?PR?MENU_LEVEL_2B?MULTI_MENU
FF000BH   FF000DH   000003H   ---    OFFS..   CODE           ?PR?IV?1
FF000EH   FF510DH   005100H   BYTE   UNIT     CODE           ?CO?LCD
FF510EH   FF54E5H   0003D8H   BYTE   INSEG    CODE           ?PR?MENU_LEVEL_3A?MULTI_MENU
FF54E6H   FF586BH   000386H   BYTE   UNIT     CODE           ?C?LIB_CODE
FF586CH   FF5BA4H   000339H   BYTE   INSEG    CODE           ?PR?FUN_ALARM_IN?MULTI_MENU
FF5BA5H   FF5EDDH   000339H   BYTE   INSEG    CODE           ?PR?FUN_ALARM_OUT?MULTI_MENU
FF5EDEH   FF61BFH   0002E2H   BYTE   INSEG    CODE           ?PR?FUN_FONT_COLOR_A?MULTI_MENU
FF61C0H   FF647BH   0002BCH   BYTE   INSEG    CODE           ?PR?FUN_FONT_COLOR_V?MULTI_MENU
FF647CH   FF66DDH   000262H   BYTE   INSEG    CODE           ?PR?LCD_SHOWCHAR?LCD
FF66DEH   FF6928H   00024BH   BYTE   INSEG    CODE           ?PR?FUN_ALARM_H?MULTI_MENU
FF6929H   FF6B73H   00024BH   BYTE   INSEG    CODE           ?PR?FUN_ALARM_L?MULTI_MENU
FF6B74H   FF6D8AH   000217H   BYTE   INSEG    CODE           ?PR?MENU_UPDATE?MULTI_MENU
FF6D8BH   FF6F75H   0001EBH   BYTE   INSEG    CODE           ?PR?MENU_LEVEL_1?MULTI_MENU
FF6F76H   FF7149H   0001D4H   BYTE   INSEG    CODE           ?PR?LCD_SHOWCHINESE12X12?LCD
FF714AH   FF731DH   0001D4H   BYTE   INSEG    CODE           ?PR?LCD_SHOWCHINESE32X32?LCD
FF731EH   FF74F1H   0001D4H   BYTE   INSEG    CODE           ?PR?LCD_SHOWCHINESE24X24?LCD
FF74F2H   FF76C5H   0001D4H   BYTE   INSEG    CODE           ?PR?LCD_SHOWCHINESE16X16?LCD
FF76C6H   FF788BH   0001C6H   BYTE   INSEG    CODE           ?PR?ADJUST_MENU?ADJUST
FF788CH   FF7A49H   0001BEH   BYTE   INSEG    CODE           ?PR?FONT_STR?MULTI_MENU
FF7A4AH   FF7BFBH   0001B2H   BYTE   INSEG    CODE           ?PR?FUN_0?MULTI_MENU
FF7BFCH   FF7DA3H   0001A8H   BYTE   INSEG    CODE           ?PR?LCD_SHOWCHAR1?LCD
FF7DA4H   FF7F39H   000196H   BYTE   INSEG    CODE           ?PR?WAVE?WAVE
FF7F3AH   FF80CDH   000194H   BYTE   INSEG    CODE           ?PR?FUN_C21?MULTI_MENU
FF80CEH   FF825EH   000191H   BYTE   INSEG    CODE           ?PR?LCD_INIT?LCD_INIT
FF825FH   FF83A5H   000147H   BYTE   INSEG    CODE           ?PR?FUN_FONG_STYLE?MULTI_MENU
FF83A6H   FF84D9H   000134H   BYTE   INSEG    CODE           ?PR?LCD_SHOWFLOATNUM?LCD
FF84DAH   FF85F5H   00011CH   BYTE   INSEG    CODE           ?PR?SYS_EEPROM_READ?SYSTEM
FF85F6H   FF8708H   000113H   BYTE   INSEG    CODE           ?PR?MAIN?MAIN
FF8709H   FF8806H   0000FEH   BYTE   INSEG    CODE           ?PR?LCD_DRAWLINE?LCD
FF8807H   FF88F9H   0000F3H   BYTE   INSEG    CODE           ?PR?SYS_EEPROM_DATAINIT?SYSTEM
FF88FAH   FF89EAH   0000F1H   BYTE   INSEG    CODE           ?PR?DRAW_CIRCLE?LCD
FF89EBH   FF8AD7H   0000EDH   BYTE   INSEG    CODE           ?PR?LCD_SHOWCHINESE?LCD
FF8AD8H   FF8BC3H   0000ECH   BYTE   INSEG    CODE           ?PR?LCD_SHOWFLOATNUM1?LCD
FF8BC4H   FF8CA8H   0000E5H   BYTE   INSEG    CODE           ?PR?LCD_SHOWINTNUM?LCD
FF8CA9H   FF8D57H   0000AFH   BYTE   INSEG    CODE           ?PR?SYS_EEPROM_WRITE?SYSTEM
FF8D58H   FF8DFDH   0000A6H   BYTE   UNIT     CODE           ?CO?BUZZER
FF8DFEH   FF8E92H   000095H   BYTE   INSEG    CODE           ?PR?FUN_MENU_ALARM?MULTI_MENU
FF8E93H   FF8F27H   000095H   BYTE   INSEG    CODE           ?PR?FUN_MENU_MAIN?MULTI_MENU
FF8F28H   FF8FB7H   000090H   BYTE   INSEG    CODE           ?PR?ALARM_UPDATE?ALARM
FF8FB8H   FF9046H   00008FH   BYTE   INSEG    CODE           ?PR?FUN_LANGUAGE?MULTI_MENU
FF9047H   FF90C6H   000080H   BYTE   INSEG    CODE           ?PR?LCD_SHOWPICTURE?LCD
FF90C7H   FF9145H   00007FH   BYTE   INSEG    CODE           ?PR?PWM_INIT_BEEP?PWM
FF9146H   FF91BDH   000078H   BYTE   INSEG    CODE           ?PR?LINEAR_FUNCTION?ADJUST
FF91BEH   FF9235H   000078H   BYTE   INSEG    CODE           ?PR?PWM_INIT_BLK?PWM
FF9236H   FF92A7H   000072H   BYTE   INSEG    CODE           ?PR?FUN_MENU_FONT?MULTI_MENU
FF92A8H   FF92BAH   000013H   BYTE   UNIT     CODE           ?C_C51STARTUP
FF92BBH   FF9314H   00005AH   BYTE   UNIT     CODE           ?C_C51STARTUP?2
FF9315H   FF9317H   000003H   BYTE   UNIT     CODE           ?C_C51STARTUP?3
FF9318H   FF9381H   00006AH   BYTE   INSEG    CODE           ?PR?SPI_INIT?SPI
FF9382H   FF93E8H   000067H   BYTE   INSEG    CODE           ?PR?LCD_DRAWRECTANGLE?LCD
FF93E9H   FF9447H   00005FH   BYTE   INSEG    CODE           ?PR?KEY_SCAN?BASE_KEY
FF9448H   FF94A6H   00005FH   BYTE   INSEG    CODE           ?PR?NEXT?BUZZER
FF94A7H   FF9501H   00005BH   BYTE   INSEG    CODE           ?PR?SET_ALARM_VALUE?ALARM
FF9502H   FF9553H   000052H   BYTE   INSEG    CODE           ?PR?LCD_SHOWSTRING?LCD
FF9554H   FF95A5H   000052H   BYTE   INSEG    CODE           ?PR?KEY?BASE_KEY
FF95A6H   FF95F6H   000051H   BYTE   INSEG    CODE           ?PR?FUN_MENU_ADJUST?MULTI_MENU
FF95F7H   FF9646H   000050H   BYTE   INSEG    CODE           ?PR?MENU_LEVEL_2A?MULTI_MENU
FF9647H   FF9696H   000050H   BYTE   INSEG    CODE           ?PR?FILTER?BSP_ADC
FF9697H   FF96E5H   00004FH   BYTE   INSEG    CODE           ?PR?LCD_FILL?LCD
L251 LINKER/LOCATER V4.66.93.0                                                        10/29/2024  08:37:11  PAGE 4


FF96E6H   FF9730H   00004BH   BYTE   INSEG    CODE           ?PR?TIMER0_INT?STC32_IT
FF9731H   FF977AH   00004AH   BYTE   INSEG    CODE           ?PR?BEEP?BUZZER
FF977BH   FF97C1H   000047H   BYTE   INSEG    CODE           ?PR?EEPROM_READ_N?STC32G_EEPROM
FF97C2H   FF9808H   000047H   BYTE   INSEG    CODE           ?PR?EEPROM_WRITE_N?STC32G_EEPROM
FF9809H   FF984EH   000046H   BYTE   INSEG    CODE           ?PR?SET_ALARM_STATE?ALARM
FF984FH   FF988CH   00003EH   BYTE   INSEG    CODE           ?PR?HANDLEALARM?ALARM
FF988DH   FF98C9H   00003DH   BYTE   INSEG    CODE           ?PR?BEEP_ALARM?BUZZER
FF98CAH   FF9905H   00003CH   BYTE   INSEG    CODE           ?PR?LCD_ADDRESS_SET?LCD_INIT
FF9906H   FF9941H   00003CH   BYTE   INSEG    CODE           ?PR?BEEP_KEY?BUZZER
FF9942H   FF997AH   000039H   BYTE   INSEG    CODE           ?PR?GETADCAVERAGE?BSP_ADC
FF997BH   FF99B3H   000039H   BYTE   INSEG    CODE           ?PR?BEEP_UPDATE?BUZZER
FF99B4H   FF99EBH   000038H   BYTE   INSEG    CODE           ?PR?HAL_SPI_INIT?SPI
FF99ECH   FF9A20H   000035H   BYTE   INSEG    CODE           ?PR?SYS_CONTROL_INIT?SYSTEM
FF9A21H   FF9A4EH   00002EH   BYTE   INSEG    CODE           ?PR?GET_ADC12BITRESULT?BSP_ADC
FF9A4FH   FF9A7AH   00002CH   BYTE   INSEG    CODE           ?PR?ISEDITABLEFUNCTION?MULTI_MENU
FF9A7BH   FF9AA0H   000026H   BYTE   INSEG    CODE           ?PR?GET_ADC12BITRESULT_A?BSP_ADC
FF9AA1H   FF9AC5H   000025H   BYTE   INSEG    CODE           ?PR?CHANNEL_GETADCAVERAGE?BSP_ADC
FF9AC6H   FF9AEAH   000025H   BYTE   INSEG    CODE           ?PR?UPDATEPWM?PWM
FF9AEBH   FF9B0CH   000022H   BYTE   INSEG    CODE           ?PR?KEY_VALUE_INIT?BASE_KEY
FF9B0DH   FF9B29H   00001DH   BYTE   INSEG    CODE           ?PR?TIMER0_INIT?TIME
FF9B2AH   FF9B46H   00001DH   BYTE   INSEG    CODE           ?PR?TIMER1_INIT?TIME
FF9B47H   FF9B61H   00001BH   BYTE   INSEG    CODE           ?PR?EEPROM_SECTORERASE?STC32G_EEPROM
FF9B62H   FF9B7BH   00001AH   BYTE   INSEG    CODE           ?PR?MYPOW?LCD
FF9B7CH   FF9B94H   000019H   BYTE   INSEG    CODE           ?PR?TIMER2_INIT?TIME
FF9B95H   FF9BADH   000019H   BYTE   INSEG    CODE           ?PR?TIMER3_INIT?TIME
FF9BAEH   FF9BC6H   000019H   BYTE   INSEG    CODE           ?PR?TIMER4_INIT?TIME
FF9BC7H   FF9BDEH   000018H   BYTE   INSEG    CODE           ?PR?LCD_WRITE_DATA?LCD_INIT
FF9BDFH   FF9BF6H   000018H   BYTE   INSEG    CODE           ?PR?LCD_WRITE_COMMAND?LCD_INIT
FF9BF7H   FF9C0DH   000017H   BYTE   INSEG    CODE           ?PR?DELAY_MS?LCD_INIT
FF9C0EH   FF9C23H   000016H   BYTE   INSEG    CODE           ?PR?ADJUST_RESET?ADJUST
FF9C24H   FF9C38H   000015H   BYTE   INSEG    CODE           ?PR?EEPROM_TRIG?STC32G_EEPROM
FF9C39H   FF9C4CH   000014H   BYTE   INSEG    CODE           ?PR?APP_ADCCONFIG?BSP_ADC
FF9C4DH   FF9C5FH   000013H   BYTE   INSEG    CODE           ?PR?LCD_DRAWPOINT?LCD
FF9C60H   FF9C72H   000013H   BYTE   INSEG    CODE           ?PR?DISABLEEEPROM?STC32G_EEPROM
FF9C73H   FF9C83H   000011H   BYTE   INSEG    CODE           ?PR?LCD_WR_DATA?LCD_INIT
FF9C84H   FF9C92H   00000FH   BYTE   INSEG    CODE           ?PR?APP_UPDATECALLBACK?MAIN
FF9C93H   FF9C9EH   00000CH   BYTE   INSEG    CODE           ?PR?ADJUST_INIT?ADJUST
FF9C9FH   FF9CAAH   00000CH   BYTE   INSEG    CODE           ?PR?ADCX_INIT?BSP_ADC
FF9CABH   FF9CB6H   00000CH   BYTE   INSEG    CODE           ?PR?TUNE_PLAY?BUZZER
FF9CB7H   FF9CC2H   00000CH   BYTE   INSEG    CODE           ?PR?TUNE_STOP?BUZZER
FF9CC3H   FF9CC5H   000003H   BYTE   INSEG    CODE           ?PR?INIT_BUZZER?BUZZER
FF9CC6H   FF9CC6H   000001H   BYTE   INSEG    CODE           ?PR?FUN_B33?MULTI_MENU
FF9CC7H   FF9CC7H   000001H   BYTE   INSEG    CODE           ?PR?FUN_B34?MULTI_MENU
FF9CC8H   FF9CC8H   000001H   BYTE   INSEG    CODE           ?PR?APP_ADCENABLE?BSP_ADC
FF9CC9H   FF9CC9H   000001H   BYTE   INSEG    CODE           ?PR?APP_ADCCALIBRATE?BSP_ADC
FF9CCAH   FF9CCAH   000001H   BYTE   INSEG    CODE           ?PR?KEY_GPIO_CONFIG?BASE_KEY
FF9CCBH   FF9E51H   000187H   BYTE   UNIT     HCONST         ?C_INITEDATA
FF9E52H   FF9F3FH   0000EEH   BYTE   UNIT     HCONST         ?HC?MULTI_MENU
FF9F40H   FF9F96H   000057H   BYTE   UNIT     HCONST         ?C_INITHDATA
FF9F97H   FF9FCCH   000036H   BYTE   UNIT     HCONST         ?HC?ADJUST
FF9FCDH   FF9FCEH   000002H   BYTE   UNIT     HCONST         ?HC?LCD



OVERLAY MAP OF MODULE:   .\Output\project (main)


FUNCTION/MODULE                       EDATA_GROUP
--> CALLED FUNCTION/MODULE            START  STOP
=================================================
timer0_int/stc32_it                   ----- -----
  +--> APP_UpdateCallback/main

APP_UpdateCallback/main               ----- -----
  +--> key/base_key
L251 LINKER/LOCATER V4.66.93.0                                                        10/29/2024  08:37:11  PAGE 5



key/base_key                          ----- -----
  +--> key_scan/base_key

key_scan/base_key                     ----- -----

*** NEW ROOT ************************

?C_C51STARTUP                         ----- -----

*** NEW ROOT ************************

?C_C51STARTUP?3                       ----- -----
  +--> main/main

main/main                             ----- -----
  +--> ADCx_Init/bsp_adc
  +--> HAL_SPI_Init/spi
  +--> LCD_Init/lcd_init
  +--> LCD_Fill/lcd
  +--> sys_control_Init/SYSTEM
  +--> Timer0_init/TIME
  +--> Init_buzzer/BUZZER
  +--> sys_EEPROM_read/SYSTEM
  +--> delay_ms/lcd_init
  +--> adjust_reset/Adjust
  +--> adjust_Init/Adjust
  +--> menu_update/multi_menu
  +--> beep_update/BUZZER
  +--> channel_GetAdcAverage/bsp_adc
  +--> linear_function/Adjust

ADCx_Init/bsp_adc                     ----- -----
  +--> APP_AdcConfig/bsp_adc

APP_AdcConfig/bsp_adc                 ----- -----

HAL_SPI_Init/spi                      ----- -----

LCD_Init/lcd_init                     ----- -----
  +--> delay_ms/lcd_init
  +--> LCD_WR_REG/lcd_init
  +--> LCD_WR_DATA8/lcd_init

delay_ms/lcd_init                     ----- -----

LCD_WR_REG/lcd_init                   ----- -----
  +--> LCD_Write_Command/lcd_init

LCD_Write_Command/lcd_init            ----- -----

LCD_WR_DATA8/lcd_init                 ----- -----
  +--> LCD_Write_Data/lcd_init

LCD_Write_Data/lcd_init               ----- -----

LCD_Fill/lcd                          017FH 0188H
  +--> LCD_Address_Set/lcd_init
  +--> LCD_WR_DATA/lcd_init

LCD_Address_Set/lcd_init              019AH 019DH
  +--> LCD_WR_REG/lcd_init
  +--> LCD_WR_DATA/lcd_init

LCD_WR_DATA/lcd_init                  ----- -----
L251 LINKER/LOCATER V4.66.93.0                                                        10/29/2024  08:37:11  PAGE 6


  +--> LCD_Write_Data/lcd_init

sys_control_Init/SYSTEM               ----- -----

Timer0_init/TIME                      ----- -----

Init_buzzer/BUZZER                    ----- -----
  +--> pwm_init_beep/PWM

pwm_init_beep/PWM                     ----- -----

sys_EEPROM_read/SYSTEM                ----- -----
  +--> EEPROM_read_n/STC32G_EEPROM

EEPROM_read_n/STC32G_EEPROM           017FH 0184H
  +--> EEPROM_Trig/STC32G_EEPROM
  +--> DisableEEPROM/STC32G_EEPROM

EEPROM_Trig/STC32G_EEPROM             ----- -----

DisableEEPROM/STC32G_EEPROM           ----- -----

adjust_reset/Adjust                   ----- -----
  +--> Key_value_init/base_key

Key_value_init/base_key               ----- -----

adjust_Init/Adjust                    ----- -----
  +--> adjust_menu/Adjust

adjust_menu/Adjust                    ----- -----
  +--> LCD_ShowString/lcd
  +--> Key_value_init/base_key
  +--> channel_GetAdcAverage/bsp_adc
  +--> EEPROM_read_n/STC32G_EEPROM
  +--> sys_EEPROM_datainit/SYSTEM
  +--> EEPROM_SectorErase/STC32G_EEPROM
  +--> EEPROM_write_n/STC32G_EEPROM
  +--> LCD_Fill/lcd

LCD_ShowString/lcd                    017FH 0188H
  +--> LCD_ShowChar/lcd

LCD_ShowChar/lcd                      0189H 0199H
  +--> LCD_Address_Set/lcd_init
  +--> LCD_WR_DATA/lcd_init
  +--> LCD_DrawPoint/lcd

LCD_DrawPoint/lcd                     ----- -----
  +--> LCD_Address_Set/lcd_init
  +--> LCD_WR_DATA/lcd_init

channel_GetAdcAverage/bsp_adc         ----- -----
  +--> GetAdcAverage/bsp_adc

GetAdcAverage/bsp_adc                 017FH 0182H
  +--> filter/bsp_adc
  +--> ?C?ULIDIV/?C?ULDIV

filter/bsp_adc                        0183H 0198H
  +--> Get_ADC12bitResult_a/bsp_adc

Get_ADC12bitResult_a/bsp_adc          ----- -----

?C?ULIDIV/?C?ULDIV                    ----- -----
L251 LINKER/LOCATER V4.66.93.0                                                        10/29/2024  08:37:11  PAGE 7



sys_EEPROM_datainit/SYSTEM            ----- -----

EEPROM_SectorErase/STC32G_EEPROM      ----- -----
  +--> EEPROM_Trig/STC32G_EEPROM
  +--> DisableEEPROM/STC32G_EEPROM

EEPROM_write_n/STC32G_EEPROM          017FH 0184H
  +--> EEPROM_Trig/STC32G_EEPROM
  +--> DisableEEPROM/STC32G_EEPROM

menu_update/multi_menu                ----- -----
  +--> isEditableFunction/multi_menu
  +--> Key_value_init/base_key
  +--> beep_key/BUZZER
  +--> LCD_Fill/lcd
  +--> sys_EEPROM_write/SYSTEM

isEditableFunction/multi_menu         ----- -----

beep_key/BUZZER                       ----- -----
  +--> tune_play/BUZZER

tune_play/BUZZER                      ----- -----
  +--> next/BUZZER

next/BUZZER                           ----- -----
  +--> beep/BUZZER

beep/BUZZER                           ----- -----

sys_EEPROM_write/SYSTEM               ----- -----
  +--> EEPROM_read_n/STC32G_EEPROM
  +--> EEPROM_SectorErase/STC32G_EEPROM
  +--> EEPROM_write_n/STC32G_EEPROM

beep_update/BUZZER                    ----- -----

linear_function/Adjust                017FH 0186H

*** NEW ROOT ************************

?C_C51STARTUP?2                       ----- -----



PUBLIC SYMBOLS OF MODULE:  .\Output\project (main)


      VALUE       CLASS    TYPE      PUBLIC SYMBOL NAME
      =================================================
      00FF5748H   CODE     NEAR LAB  ?C?CASTF
      000000FFH   NUMBER   ---       ?C?CODESEG
      00FF5715H   CODE     NEAR LAB  ?C?FCASTC
      00FF5710H   CODE     NEAR LAB  ?C?FCASTI
      00FF570BH   CODE     NEAR LAB  ?C?FCASTL
      00FF54ECH   CODE     ---       ?C?FPADD
      00FF56C7H   CODE     ---       ?C?FPCMP
      00FF56C5H   CODE     ---       ?C?FPCMP3
      00FF5644H   CODE     ---       ?C?FPDIV
      00FF5785H   CODE     ---       ?C?FPGETOPN2
      00FF55A4H   CODE     ---       ?C?FPMUL
      00FF57C2H   CODE     ---       ?C?FPNANRESULT
      00FF57CAH   CODE     ---       ?C?FPOVERFLOW
      00FF579EH   CODE     ---       ?C?FPRESULT
L251 LINKER/LOCATER V4.66.93.0                                                        10/29/2024  08:37:11  PAGE 8


      00FF57B4H   CODE     ---       ?C?FPRESULT2
      00FF54E9H   CODE     ---       ?C?FPSUB
      00FF57C7H   CODE     ---       ?C?FPUNDERFLOW
      00FF92BBH   CODE     ---       ?C?INITEDATA
      00FF9E50H   HCONST   WORD      ?C?INITEDATA_END
      00FF92E4H   CODE     ---       ?C?INITHDATA
      00FF9F95H   HCONST   WORD      ?C?INITHDATA_END
      00FF5808H   CODE     ---       ?C?LMUL
      00FF57D6H   CODE     ---       ?C?SIDIV
      00FF0000H   CODE     ---       ?C?STARTUP
      00FF581BH   CODE     NEAR LAB  ?C?ULDIV
      00FF5819H   CODE     NEAR LAB  ?C?ULIDIV
      00000001H   NUMBER   ---       ?C?XDATASEG
      00FF0000H   CODE     ---       ?C_STARTUP
      0000017BH   EDATA    BYTE      ?EEPROM_read_n?BYTE
      0000017BH   EDATA    BYTE      ?EEPROM_write_n?BYTE
      00000201H   EDATA    BYTE      ?LCD_DrawLine?BYTE
      00000291H   EDATA    BYTE      ?LCD_DrawRectangle?BYTE
      0000017BH   EDATA    BYTE      ?LCD_Fill?BYTE
      00000217H   EDATA    BYTE      ?LCD_ShowChar1?BYTE
      00000185H   EDATA    BYTE      ?LCD_ShowChar?BYTE
      000001B1H   EDATA    BYTE      ?LCD_ShowChinese12x12?BYTE
      000001C6H   EDATA    BYTE      ?LCD_ShowChinese16x16?BYTE
      000001DBH   EDATA    BYTE      ?LCD_ShowChinese24x24?BYTE
      000001F0H   EDATA    BYTE      ?LCD_ShowChinese32x32?BYTE
      00000278H   EDATA    BYTE      ?LCD_ShowChinese?BYTE
      00000269H   EDATA    BYTE      ?LCD_ShowFloatNum1?BYTE
      0000023AH   EDATA    BYTE      ?LCD_ShowFloatNum?BYTE
      00000255H   EDATA    BYTE      ?LCD_ShowIntNum?BYTE
      0000025DH   EDATA    BYTE      ?LCD_ShowPicture?BYTE
      0000017BH   EDATA    BYTE      ?LCD_ShowString?BYTE
      00000177H   EDATA    BYTE      ?linear_function?BYTE
      00000020H.5 BIT      BIT       ?wave?BIT
      0000000AH   EDATA    WORD      adc
*SFR* 000000BCH   DATA     BYTE      ADC_CONTR
*SFR* 000000BCH.5 DATA     BIT       ADC_FLAG
*SFR* 000000BDH   DATA     BYTE      ADC_RES
*SFR* 000000BEH   DATA     BYTE      ADC_RESL
*SFR* 000000BCH.6 DATA     BIT       ADC_START
*SFR* 000000DEH   DATA     BYTE      ADCCFG
      00FF9C9FH   CODE     ---       ADCx_Init
      00FF9C93H   CODE     ---       adjust_Init
      00FF76C6H   CODE     ---       adjust_menu
      00FF9C0EH   CODE     ---       adjust_reset
      000001A9H   EDATA    ---       adjusta
      0000019EH   EDATA    ---       adjustv
      00FF8F28H   CODE     ---       alarm_update
      0000012FH   EDATA    ---       alarma
      0000011FH   EDATA    ---       alarma_table
      0000010FH   EDATA    ---       alarmv
      0000013FH   EDATA    ---       alarmv_table
      00FF9CC9H   CODE     ---       APP_AdcCalibrate
      00FF9CC8H   CODE     ---       APP_AdcEnable
      00FF9C84H   CODE     ---       APP_UpdateCallback
      00FF2E2AH   CODE     ---       ascii_1206
      00FF4A5EH   CODE     ---       ascii_1608
      00FF1B3AH   CODE     ---       ascii_2412
      00FF329EH   CODE     ---       ascii_3216
      00FF02DAH   CODE     ---       ascii_4020
      00FF08F2H   CODE     ---       ascii_4120
      00FF0F0AH   CODE     ---       ascii_4220
      00FF1522H   CODE     ---       ascii_4320
      00FF504EH   CODE     ---       ascii_4828
*SFR* 000000EFH   DATA     BYTE      AUXINTIF
*SFR* 0000008EH   DATA     BYTE      AUXR
L251 LINKER/LOCATER V4.66.93.0                                                        10/29/2024  08:37:11  PAGE 9


*SFR* 00000097H   DATA     BYTE      AUXR2
      00000020H.4 BIT      BIT       B_1ms
      00FF9731H   CODE     ---       beep
      00FF988DH   CODE     ---       beep_alarm
      00FF9906H   CODE     ---       beep_key
      00FF997BH   CODE     ---       beep_update
*SFR* 000000F1H   DATA     BYTE      CANICR
      00FF9AA1H   CODE     ---       channel_GetAdcAverage
*SFR* 000000EAH   DATA     BYTE      CKCON
*SFR* 000000E6H   DATA     BYTE      CMPCR1
*SFR* 000000E7H   DATA     BYTE      CMPCR2
      00000105H   EDATA    ---       current_operation_index
      00FF9BF7H   CODE     ---       delay_ms
      00FF9C60H   CODE     ---       DisableEEPROM
      00FF88FAH   CODE     ---       Draw_Circle
*SFR* 000000A8H.7 DATA     BIT       EA
*SFR* 000000BAH.7 DATA     BIT       EAXFR
      00000161H   EDATA    ---       EE_Data
      00FF977BH   CODE     ---       EEPROM_read_n
      00FF9B47H   CODE     ---       EEPROM_SectorErase
      00FF9C24H   CODE     ---       EEPROM_Trig
      00FF97C2H   CODE     ---       EEPROM_write_n
*SFR* 000000A8H.1 DATA     BIT       ET0
*SFR* 000000A8H.3 DATA     BIT       ET1
*SFR* 000000AFH.2 DATA     BIT       ET2
*SFR* 000000AFH.5 DATA     BIT       ET3
*SFR* 000000AFH.6 DATA     BIT       ET4
*SFR* 000000D0H.5 DATA     BIT       F0
      00FF9647H   CODE     ---       filter
      00FF788CH   CODE     ---       font_str
      00FF7A4AH   CODE     ---       fun_0
      00FF66DEH   CODE     ---       fun_alarm_H
      00FF586CH   CODE     ---       fun_alarm_In
      00FF6929H   CODE     ---       fun_alarm_L
      00FF5BA5H   CODE     ---       fun_alarm_Out
      00FF9CC6H   CODE     ---       fun_b33
      00FF9CC7H   CODE     ---       fun_b34
      00FF7F3AH   CODE     ---       fun_c21
      00FF825FH   CODE     ---       fun_fong_style
      00FF5EDEH   CODE     ---       fun_font_color_a
      00FF61C0H   CODE     ---       fun_font_color_v
      00FF8FB8H   CODE     ---       fun_language
      00FF95A6H   CODE     ---       fun_menu_adjust
      00FF8DFEH   CODE     ---       fun_menu_alarm
      00FF9236H   CODE     ---       fun_menu_font
      00FF8E93H   CODE     ---       fun_menu_main
      00000101H   EDATA    BYTE      func_index
      00FF9A21H   CODE     ---       Get_ADC12bitResult
      00FF9A7BH   CODE     ---       Get_ADC12bitResult_a
      00FF9942H   CODE     ---       GetAdcAverage
      00FF99B4H   CODE     ---       HAL_SPI_Init
      00FF984FH   CODE     ---       handleAlarm
*SFR* 000000F6H   DATA     BYTE      IAP_ADDRE
*SFR* 000000C3H   DATA     BYTE      IAP_ADDRH
*SFR* 000000C4H   DATA     BYTE      IAP_ADDRL
*SFR* 000000C5H   DATA     BYTE      IAP_CMD
*SFR* 000000C7H   DATA     BYTE      IAP_CONTR
*SFR* 000000C2H   DATA     BYTE      IAP_DATA
*SFR* 000000F5H   DATA     BYTE      IAP_TPS
*SFR* 000000C6H   DATA     BYTE      IAP_TRIG
*SFR* 000000C7H.7 DATA     BIT       IAPEN
*SFR* 000000A8H   DATA     BYTE      IE
*SFR* 000000AFH   DATA     BYTE      IE2
      00FF9CC3H   CODE     ---       Init_buzzer
*SFR* 0000008FH   DATA     BYTE      INTCLKO
L251 LINKER/LOCATER V4.66.93.0                                                        10/29/2024  08:37:11  PAGE 10


*SFR* 000000B8H   DATA     BYTE      IP
*SFR* 000000B5H   DATA     BYTE      IP2
*SFR* 000000B6H   DATA     BYTE      IP2H
*SFR* 000000DFH   DATA     BYTE      IP3
*SFR* 000000EEH   DATA     BYTE      IP3H
*SFR* 000000B7H   DATA     BYTE      IPH
*SFR* 0000009DH   DATA     BYTE      IRCBAND
      00FF9A4FH   CODE     ---       isEditableFunction
      00FF9554H   CODE     ---       key
*SFR* 000000B0H.7 DATA     BIT       KEY_DOWN
      00FF9CCAH   CODE     ---       Key_GPIO_Config
*SFR* 000000B0H.5 DATA     BIT       KEY_RETURN
      00FF93E9H   CODE     ---       key_scan
*SFR* 000000B0H.2 DATA     BIT       KEY_SET
*SFR* 000000B0H.6 DATA     BIT       KEY_UP
      00FF9AEBH   CODE     ---       Key_value_init
      00000103H   EDATA    BYTE      last_index
      00FF98CAH   CODE     ---       LCD_Address_Set
*SFR* 000000B0H.3 DATA     BIT       LCD_BLK
      00FF8709H   CODE     ---       LCD_DrawLine
      00FF9C4DH   CODE     ---       LCD_DrawPoint
      00FF9382H   CODE     ---       LCD_DrawRectangle
      00FF9697H   CODE     ---       LCD_Fill
      00FF80CEH   CODE     ---       LCD_Init
      00FF647CH   CODE     ---       LCD_ShowChar
      00FF7BFCH   CODE     ---       LCD_ShowChar1
      00FF89EBH   CODE     ---       LCD_ShowChinese
      00FF6F76H   CODE     ---       LCD_ShowChinese12x12
      00FF74F2H   CODE     ---       LCD_ShowChinese16x16
      00FF731EH   CODE     ---       LCD_ShowChinese24x24
      00FF714AH   CODE     ---       LCD_ShowChinese32x32
      00FF83A6H   CODE     ---       LCD_ShowFloatNum
      00FF8AD8H   CODE     ---       LCD_ShowFloatNum1
      00FF8BC4H   CODE     ---       LCD_ShowIntNum
      00FF9047H   CODE     ---       LCD_ShowPicture
      00FF9502H   CODE     ---       LCD_ShowString
      00FF9C73H   CODE     ---       LCD_WR_DATA
      00FF0003H   CODE     ---       LCD_WR_DATA8
      00FF0006H   CODE     ---       LCD_WR_REG
      00FF9BDFH   CODE     ---       LCD_Write_Command
      00FF9BC7H   CODE     ---       LCD_Write_Data
      00FF9146H   CODE     ---       linear_function
*SFR* 000000F9H   DATA     BYTE      LINICR
      00FF85F6H   CODE     ---       main
      00FF6D8BH   CODE     ---       menu_level_1
      00FF95F7H   CODE     ---       menu_level_2a
      00FF000AH   CODE     ---       menu_level_2b
      00FF510EH   CODE     ---       menu_level_3a
      00FF6B74H   CODE     ---       menu_update
      00FF9B62H   CODE     ---       mypow
*SFR* 00000090H.2 DATA     BIT       OLED_CS
*SFR* 00000090H.6 DATA     BIT       OLED_DC
*SFR* 00000090H.4 DATA     BIT       OLED_RST
*SFR* 00000090H.5 DATA     BIT       OLED_SCLK
*SFR* 00000090H.3 DATA     BIT       OLED_SDIN
*SFR* 00000080H   DATA     BYTE      P0
*SFR* 00000090H   DATA     BYTE      P1
*SFR* 00000092H   DATA     BYTE      P1M0
*SFR* 00000091H   DATA     BYTE      P1M1
*SFR* 000000A0H   DATA     BYTE      P2
*SFR* 000000B0H   DATA     BYTE      P3
*SFR* 000000B2H   DATA     BYTE      P3M0
*SFR* 000000B1H   DATA     BYTE      P3M1
*SFR* 000000C0H   DATA     BYTE      P4
*SFR* 000000C8H   DATA     BYTE      P5
L251 LINKER/LOCATER V4.66.93.0                                                        10/29/2024  08:37:11  PAGE 11


*SFR* 000000E8H   DATA     BYTE      P6
*SFR* 000000F8H   DATA     BYTE      P7
*SFR* 000000A2H   DATA     BYTE      P_SW1
*SFR* 000000BAH   DATA     BYTE      P_SW2
*SFR* 000000BBH   DATA     BYTE      P_SW3
*SFR* 00000087H   DATA     BYTE      PCON
      00FF0009H   CODE     ---       power
*SFR* 000000D0H   DATA     BYTE      PSW
      00000286H   EDATA    WORD      PWM1_Duty
      00000020H.0 BIT      BIT       PWM1_Flag
      00000288H   EDATA    WORD      PWM2_Duty
      00000020H.1 BIT      BIT       PWM2_Flag
      0000028AH   EDATA    WORD      PWM3_Duty
      00000020H.2 BIT      BIT       PWM3_Flag
      0000028CH   EDATA    WORD      PWM4_Duty
      00000020H.3 BIT      BIT       PWM4_Flag
      00FF90C7H   CODE     ---       pwm_init_beep
      00FF91BEH   CODE     ---       pwm_init_blk
*SFR* 000000FFH   DATA     BYTE      RSTCFG
*SFR* 0000009AH   DATA     BYTE      S2CON
*SFR* 000000ACH   DATA     BYTE      S3CON
*SFR* 000000FDH   DATA     BYTE      S4CON
*SFR* 00000098H   DATA     BYTE      SCON
      00FF9809H   CODE     ---       set_alarm_state
      00FF94A7H   CODE     ---       set_alarm_value
*SFR* 000000CEH   DATA     BYTE      SPCTL
*SFR* 000000CFH   DATA     BYTE      SPDAT
      00FF9318H   CODE     ---       SPI_init
*SFR* 000000CDH.7 DATA     BIT       SPIF
*SFR* 000000CDH   DATA     BYTE      SPSTAT
      00000153H   EDATA    ---       sys
      00FF99ECH   CODE     ---       sys_control_Init
      00FF8807H   CODE     ---       sys_EEPROM_datainit
      00FF84DAH   CODE     ---       sys_EEPROM_read
      00FF8CA9H   CODE     ---       sys_EEPROM_write
      00000230H   EDATA    ---       sys_key_down
      0000022CH   EDATA    ---       sys_key_return
      00000234H   EDATA    ---       sys_key_set
      00000238H   EDATA    ---       sys_key_up
      0000001CH   EDATA    DWORD     T0_Count
*SFR* 00000089H.2 DATA     BIT       T0_CT
*SFR* 0000008FH.0 DATA     BIT       T0CLKO
*SFR* 0000008EH.7 DATA     BIT       T0x12
*SFR* 00000089H.6 DATA     BIT       T1_CT
*SFR* 0000008FH.1 DATA     BIT       T1CLKO
*SFR* 0000008EH.6 DATA     BIT       T1x12
*SFR* 0000008EH.3 DATA     BIT       T2_CT
*SFR* 0000008FH.2 DATA     BIT       T2CLKO
*SFR* 000000D6H   DATA     BYTE      T2H
*SFR* 000000D7H   DATA     BYTE      T2L
*SFR* 0000008EH.4 DATA     BIT       T2R
*SFR* 0000008EH.2 DATA     BIT       T2x12
*SFR* 000000DDH.2 DATA     BIT       T3_CT
*SFR* 000000DDH.0 DATA     BIT       T3CLKO
*SFR* 000000D4H   DATA     BYTE      T3H
*SFR* 000000D5H   DATA     BYTE      T3L
*SFR* 000000DDH.3 DATA     BIT       T3R
*SFR* 000000DDH.1 DATA     BIT       T3x12
*SFR* 000000DDH.6 DATA     BIT       T4_CT
*SFR* 000000DDH.4 DATA     BIT       T4CLKO
*SFR* 000000D2H   DATA     BYTE      T4H
*SFR* 000000D3H   DATA     BYTE      T4L
*SFR* 000000DDH.7 DATA     BIT       T4R
*SFR* 000000DDH   DATA     BYTE      T4T3M
*SFR* 000000DDH.5 DATA     BIT       T4x12
L251 LINKER/LOCATER V4.66.93.0                                                        10/29/2024  08:37:11  PAGE 12


      00000021H   EDATA    ---       table
      00000016H   EDATA    ---       Task_Delay
*SFR* 00000088H   DATA     BYTE      TCON
      0000000EH   EDATA    DWORD     temp_adc
      00000008H   EDATA    WORD      temp_adca
      0000000CH   EDATA    WORD      temp_adcv
      00000012H   EDATA    DWORD     temp_t0_count
      00FF000EH   CODE     ---       tfont12
      00FF0142H   CODE     ---       tfont16
      00FF00F8H   CODE     ---       tfont24
      00FF0076H   CODE     ---       tfont32
*SFR* 0000008CH   DATA     BYTE      TH0
*SFR* 0000008DH   DATA     BYTE      TH1
      00FF9B0DH   CODE     ---       Timer0_init
      00FF96E6H   CODE     ---       timer0_int
      00FF9B2AH   CODE     ---       Timer1_init
      00FF9B7CH   CODE     ---       Timer2_init
      00FF9B95H   CODE     ---       Timer3_init
      00FF9BAEH   CODE     ---       Timer4_init
*SFR* 0000008AH   DATA     BYTE      TL0
*SFR* 0000008BH   DATA     BYTE      TL1
*SFR* 00000089H   DATA     BYTE      TMOD
*SFR* 00000088H.4 DATA     BIT       TR0
*SFR* 00000088H.6 DATA     BIT       TR1
      00FF9CABH   CODE     ---       tune_play
      00FF9CB7H   CODE     ---       tune_stop
      00FF8DACH   CODE     ---       tuneAlarm
      00FF8DBEH   CODE     ---       tuneAlarm_H
      00FF8D82H   CODE     ---       tuneAlarm_IN
      00FF8DF8H   CODE     ---       tuneAlarm_L
      00FF8D60H   CODE     ---       tuneAlarm_OUT
      00FF8D58H   CODE     ---       tuneBtn_down
      00FF8D6EH   CODE     ---       tuneBtn_set
      00FF8DA4H   CODE     ---       tuneBtn_up
      00FF8D74H   CODE     ---       tuneUsbCharged
      00FF9AC6H   CODE     ---       UpdatePwm
*SFR* 000000DCH   DATA     BYTE      USBCLK
*SFR* 000000F4H   DATA     BYTE      USBCON
      00FF7DA4H   CODE     ---       wave
      00010000H   XDATA    ---       wavebuf_1
*SFR* 000000CDH.6 DATA     BIT       WCOL
*SFR* 000000C1H   DATA     BYTE      WDT_CONTR
*SFR* 000000E9H   DATA     BYTE      WTST



SYMBOL TABLE OF MODULE:  .\Output\project (main)

      VALUE       REP       CLASS    TYPE      SYMBOL NAME
      ====================================================
      ---         MODULE    ---      ---       main
      00FF85F6H   PUBLIC    CODE     ---       main
      00FF9C84H   PUBLIC    CODE     ---       APP_UpdateCallback
      00000008H   PUBLIC    EDATA    WORD      temp_adca
      0000000AH   PUBLIC    EDATA    WORD      adc
      0000000CH   PUBLIC    EDATA    WORD      temp_adcv
      0000000EH   PUBLIC    EDATA    DWORD     temp_adc
      00000012H   PUBLIC    EDATA    DWORD     temp_t0_count
      00000016H   PUBLIC    EDATA    ---       Task_Delay
      0000001CH   PUBLIC    EDATA    DWORD     T0_Count
      000000D0H   SFRSYM    DATA     BYTE      PSW
      000000BAH.7 SFRSYM    DATA     BIT       EAXFR
      0000009DH   SFRSYM    DATA     BYTE      IRCBAND
      00000097H   SFRSYM    DATA     BYTE      AUXR2
      000000EAH   SFRSYM    DATA     BYTE      CKCON
L251 LINKER/LOCATER V4.66.93.0                                                        10/29/2024  08:37:11  PAGE 13


      000000EFH   SFRSYM    DATA     BYTE      AUXINTIF
      000000FDH   SFRSYM    DATA     BYTE      S4CON
      000000ACH   SFRSYM    DATA     BYTE      S3CON
      0000009AH   SFRSYM    DATA     BYTE      S2CON
      000000B7H   SFRSYM    DATA     BYTE      IPH
      000000CDH   SFRSYM    DATA     BYTE      SPSTAT
      000000DDH   SFRSYM    DATA     BYTE      T4T3M
      000000C1H   SFRSYM    DATA     BYTE      WDT_CONTR
      000000E9H   SFRSYM    DATA     BYTE      WTST
      000000DFH   SFRSYM    DATA     BYTE      IP3
      000000F4H   SFRSYM    DATA     BYTE      USBCON
      000000B5H   SFRSYM    DATA     BYTE      IP2
      000000FFH   SFRSYM    DATA     BYTE      RSTCFG
      000000C7H   SFRSYM    DATA     BYTE      IAP_CONTR
      000000F9H   SFRSYM    DATA     BYTE      LINICR
      0000008EH   SFRSYM    DATA     BYTE      AUXR
      000000AFH   SFRSYM    DATA     BYTE      IE2
      00000088H   SFRSYM    DATA     BYTE      TCON
      00000089H   SFRSYM    DATA     BYTE      TMOD
      00000098H   SFRSYM    DATA     BYTE      SCON
      000000F1H   SFRSYM    DATA     BYTE      CANICR
      00000087H   SFRSYM    DATA     BYTE      PCON
      000000BCH   SFRSYM    DATA     BYTE      ADC_CONTR
      000000E7H   SFRSYM    DATA     BYTE      CMPCR2
      000000E6H   SFRSYM    DATA     BYTE      CMPCR1
      000000DEH   SFRSYM    DATA     BYTE      ADCCFG
      000000B8H   SFRSYM    DATA     BYTE      IP
      0000008FH   SFRSYM    DATA     BYTE      INTCLKO
      000000EEH   SFRSYM    DATA     BYTE      IP3H
      000000B6H   SFRSYM    DATA     BYTE      IP2H
      000000A8H   SFRSYM    DATA     BYTE      IE
      000000BBH   SFRSYM    DATA     BYTE      P_SW3
      000000BAH   SFRSYM    DATA     BYTE      P_SW2
      000000A2H   SFRSYM    DATA     BYTE      P_SW1
      000000CEH   SFRSYM    DATA     BYTE      SPCTL
      000000F8H   SFRSYM    DATA     BYTE      P7
      000000A8H.7 SFRSYM    DATA     BIT       EA
      000000E8H   SFRSYM    DATA     BYTE      P6
      000000C8H   SFRSYM    DATA     BYTE      P5
      000000C0H   SFRSYM    DATA     BYTE      P4
      000000B0H   SFRSYM    DATA     BYTE      P3
      000000A0H   SFRSYM    DATA     BYTE      P2
      000000B1H   SFRSYM    DATA     BYTE      P3M1
      00000090H   SFRSYM    DATA     BYTE      P1
      000000B2H   SFRSYM    DATA     BYTE      P3M0
      00000080H   SFRSYM    DATA     BYTE      P0
      00000091H   SFRSYM    DATA     BYTE      P1M1
      00000092H   SFRSYM    DATA     BYTE      P1M0

      00FF85F6H   BLOCK     CODE     ---       LVL=0
      00FF85F6H   LINE      CODE     ---       #60
      00FF85F6H   LINE      CODE     ---       #62
      00FF85F9H   LINE      CODE     ---       #63
      00FF85FCH   LINE      CODE     ---       #64
      00FF85FFH   LINE      CODE     ---       #66
      00FF8605H   LINE      CODE     ---       #67
      00FF8615H   LINE      CODE     ---       #68
      00FF861BH   LINE      CODE     ---       #69
      00FF8624H   LINE      CODE     ---       #71
      00FF8627H   LINE      CODE     ---       #72
      00FF862AH   LINE      CODE     ---       #74
      00FF862DH   LINE      CODE     ---       #75
      00FF8640H   LINE      CODE     ---       #76
      00FF8643H   LINE      CODE     ---       #77
      00FF8646H   LINE      CODE     ---       #78
L251 LINKER/LOCATER V4.66.93.0                                                        10/29/2024  08:37:11  PAGE 14


      00FF8649H   LINE      CODE     ---       #80
      00FF864BH   LINE      CODE     ---       #82
      00FF864EH   LINE      CODE     ---       #83
      00FF8655H   LINE      CODE     ---       #84
      00FF8658H   LINE      CODE     ---       #86
      00FF865BH   LINE      CODE     ---       #87
      00FF865BH   LINE      CODE     ---       #93
      00FF8663H   LINE      CODE     ---       #99
      00FF866BH   LINE      CODE     ---       #100
      00FF866BH   LINE      CODE     ---       #102
      00FF8673H   LINE      CODE     ---       #107
      00FF8676H   LINE      CODE     ---       #108
      00FF8679H   LINE      CODE     ---       #109
      00FF8681H   LINE      CODE     ---       #110
      00FF8681H   LINE      CODE     ---       #111
      00FF8689H   LINE      CODE     ---       #117
      00FF8696H   LINE      CODE     ---       #118
      00FF86A2H   LINE      CODE     ---       #130
      00FF86CFH   LINE      CODE     ---       #131
      00FF86FEH   LINE      CODE     ---       #132
      00FF8706H   LINE      CODE     ---       #133
      ---         BLOCKEND  ---      ---       LVL=0

      00FF9C84H   BLOCK     CODE     ---       LVL=0
      00FF9C84H   LINE      CODE     ---       #143
      00FF9C84H   LINE      CODE     ---       #145
      00FF9C8EH   LINE      CODE     ---       #146
      ---         BLOCKEND  ---      ---       LVL=0

      ---         MODULE    ---      ---       stc32_it
      00FF96E6H   PUBLIC    CODE     ---       timer0_int

      00FF96E6H   BLOCK     CODE     ---       LVL=0
      00FF96FAH   BLOCK     CODE     NEAR LAB  LVL=1
      R7          REGSYM    ---      BYTE      i
      ---         BLOCKEND  ---      ---       LVL=1
      00FF96E6H   LINE      CODE     ---       #59
      00FF96FAH   LINE      CODE     ---       #60
      00FF96FAH   LINE      CODE     ---       #63
      00FF96FCH   LINE      CODE     ---       #65
      00FF9709H   LINE      CODE     ---       #67
      00FF9712H   LINE      CODE     ---       #68
      00FF9719H   LINE      CODE     ---       #70
      00FF971CH   LINE      CODE     ---       #71
      ---         BLOCKEND  ---      ---       LVL=0

      ---         MODULE    ---      ---       SYSTEM
      00FF84DAH   PUBLIC    CODE     ---       sys_EEPROM_read
      00FF8CA9H   PUBLIC    CODE     ---       sys_EEPROM_write
      00FF0009H   PUBLIC    CODE     ---       power
      00FF99ECH   PUBLIC    CODE     ---       sys_control_Init
      00FF8807H   PUBLIC    CODE     ---       sys_EEPROM_datainit
      00000153H   PUBLIC    EDATA    ---       sys
      00000161H   PUBLIC    EDATA    ---       EE_Data
      000000D0H   SFRSYM    DATA     BYTE      PSW
      0000009DH   SFRSYM    DATA     BYTE      IRCBAND
      00000097H   SFRSYM    DATA     BYTE      AUXR2
      000000EFH   SFRSYM    DATA     BYTE      AUXINTIF
      000000FDH   SFRSYM    DATA     BYTE      S4CON
      000000ACH   SFRSYM    DATA     BYTE      S3CON
      0000009AH   SFRSYM    DATA     BYTE      S2CON
      000000B7H   SFRSYM    DATA     BYTE      IPH
      000000CDH   SFRSYM    DATA     BYTE      SPSTAT
      000000DDH   SFRSYM    DATA     BYTE      T4T3M
      000000C1H   SFRSYM    DATA     BYTE      WDT_CONTR
L251 LINKER/LOCATER V4.66.93.0                                                        10/29/2024  08:37:11  PAGE 15


      000000DFH   SFRSYM    DATA     BYTE      IP3
      000000F4H   SFRSYM    DATA     BYTE      USBCON
      000000B5H   SFRSYM    DATA     BYTE      IP2
      000000FFH   SFRSYM    DATA     BYTE      RSTCFG
      000000C7H   SFRSYM    DATA     BYTE      IAP_CONTR
      000000F9H   SFRSYM    DATA     BYTE      LINICR
      0000008EH   SFRSYM    DATA     BYTE      AUXR
      000000AFH   SFRSYM    DATA     BYTE      IE2
      00000088H   SFRSYM    DATA     BYTE      TCON
      00000089H   SFRSYM    DATA     BYTE      TMOD
      00000098H   SFRSYM    DATA     BYTE      SCON
      000000F1H   SFRSYM    DATA     BYTE      CANICR
      00000087H   SFRSYM    DATA     BYTE      PCON
      000000BCH   SFRSYM    DATA     BYTE      ADC_CONTR
      000000E7H   SFRSYM    DATA     BYTE      CMPCR2
      000000E6H   SFRSYM    DATA     BYTE      CMPCR1
      000000DEH   SFRSYM    DATA     BYTE      ADCCFG
      000000B8H   SFRSYM    DATA     BYTE      IP
      0000008FH   SFRSYM    DATA     BYTE      INTCLKO
      000000EEH   SFRSYM    DATA     BYTE      IP3H
      000000B6H   SFRSYM    DATA     BYTE      IP2H
      000000A8H   SFRSYM    DATA     BYTE      IE
      000000BBH   SFRSYM    DATA     BYTE      P_SW3
      000000BAH   SFRSYM    DATA     BYTE      P_SW2
      000000A2H   SFRSYM    DATA     BYTE      P_SW1
      000000CEH   SFRSYM    DATA     BYTE      SPCTL
      000000F8H   SFRSYM    DATA     BYTE      P7
      000000E8H   SFRSYM    DATA     BYTE      P6
      000000C8H   SFRSYM    DATA     BYTE      P5
      000000C0H   SFRSYM    DATA     BYTE      P4
      000000B0H   SFRSYM    DATA     BYTE      P3
      000000A0H   SFRSYM    DATA     BYTE      P2
      00000090H   SFRSYM    DATA     BYTE      P1
      00000080H   SFRSYM    DATA     BYTE      P0

      00FF99ECH   BLOCK     CODE     ---       LVL=0
      00FF99ECH   LINE      CODE     ---       #10
      00FF99ECH   LINE      CODE     ---       #12
      00FF99F4H   LINE      CODE     ---       #13
      00FF99FCH   LINE      CODE     ---       #14
      00FF9A02H   LINE      CODE     ---       #15
      00FF9A07H   LINE      CODE     ---       #16
      00FF9A0DH   LINE      CODE     ---       #17
      00FF9A11H   LINE      CODE     ---       #18
      00FF9A15H   LINE      CODE     ---       #19
      00FF9A1BH   LINE      CODE     ---       #20
      00FF9A20H   LINE      CODE     ---       #21
      ---         BLOCKEND  ---      ---       LVL=0

      00FF8807H   BLOCK     CODE     ---       LVL=0
      00FF8807H   LINE      CODE     ---       #22
      00FF8807H   LINE      CODE     ---       #24
      00FF880FH   LINE      CODE     ---       #25
      00FF8814H   LINE      CODE     ---       #26
      00FF881AH   LINE      CODE     ---       #27
      00FF881EH   LINE      CODE     ---       #28
      00FF8826H   LINE      CODE     ---       #29
      00FF882EH   LINE      CODE     ---       #30
      00FF8832H   LINE      CODE     ---       #31
      00FF8836H   LINE      CODE     ---       #32
      00FF883AH   LINE      CODE     ---       #33
      00FF883EH   LINE      CODE     ---       #34
      00FF8842H   LINE      CODE     ---       #35
      00FF8846H   LINE      CODE     ---       #36
      00FF884AH   LINE      CODE     ---       #37
L251 LINKER/LOCATER V4.66.93.0                                                        10/29/2024  08:37:11  PAGE 16


      00FF884EH   LINE      CODE     ---       #38
      00FF8856H   LINE      CODE     ---       #39
      00FF885AH   LINE      CODE     ---       #40
      00FF885EH   LINE      CODE     ---       #41
      00FF8866H   LINE      CODE     ---       #42
      00FF886EH   LINE      CODE     ---       #43
      00FF8874H   LINE      CODE     ---       #44
      00FF887CH   LINE      CODE     ---       #45
      00FF8884H   LINE      CODE     ---       #46
      00FF888EH   LINE      CODE     ---       #47
      00FF8896H   LINE      CODE     ---       #48
      00FF889AH   LINE      CODE     ---       #49
      00FF889EH   LINE      CODE     ---       #50
      00FF88A6H   LINE      CODE     ---       #51
      00FF88AAH   LINE      CODE     ---       #52
      00FF88B2H   LINE      CODE     ---       #53
      00FF88B6H   LINE      CODE     ---       #54
      00FF88BBH   LINE      CODE     ---       #55
      00FF88C3H   LINE      CODE     ---       #56
      00FF88C7H   LINE      CODE     ---       #57
      00FF88CDH   LINE      CODE     ---       #58
      00FF88D3H   LINE      CODE     ---       #59
      00FF88DBH   LINE      CODE     ---       #60
      00FF88E1H   LINE      CODE     ---       #61
      00FF88E7H   LINE      CODE     ---       #62
      00FF88EDH   LINE      CODE     ---       #63
      00FF88F5H   LINE      CODE     ---       #64
      00FF88F9H   LINE      CODE     ---       #65
      ---         BLOCKEND  ---      ---       LVL=0

      00FF8CA9H   BLOCK     CODE     ---       LVL=0
      00FF8CA9H   LINE      CODE     ---       #66
      00FF8CA9H   LINE      CODE     ---       #68
      00FF8CBAH   LINE      CODE     ---       #69
      00FF8CC2H   LINE      CODE     ---       #70
      00FF8CC6H   LINE      CODE     ---       #71
      00FF8CCEH   LINE      CODE     ---       #72
      00FF8CD6H   LINE      CODE     ---       #73
      00FF8CDAH   LINE      CODE     ---       #74
      00FF8CE2H   LINE      CODE     ---       #75
      00FF8CEAH   LINE      CODE     ---       #76
      00FF8CEEH   LINE      CODE     ---       #77
      00FF8CF6H   LINE      CODE     ---       #78
      00FF8CFAH   LINE      CODE     ---       #79
      00FF8D02H   LINE      CODE     ---       #80
      00FF8D0AH   LINE      CODE     ---       #81
      00FF8D0EH   LINE      CODE     ---       #82
      00FF8D16H   LINE      CODE     ---       #83
      00FF8D1AH   LINE      CODE     ---       #84
      00FF8D22H   LINE      CODE     ---       #85
      00FF8D2AH   LINE      CODE     ---       #86
      00FF8D32H   LINE      CODE     ---       #87
      00FF8D36H   LINE      CODE     ---       #88
      00FF8D3EH   LINE      CODE     ---       #89
      00FF8D42H   LINE      CODE     ---       #91
      00FF8D47H   LINE      CODE     ---       #92
      ---         BLOCKEND  ---      ---       LVL=0

      00FF84DAH   BLOCK     CODE     ---       LVL=0
      00FF84DAH   LINE      CODE     ---       #94
      00FF84DAH   LINE      CODE     ---       #96
      00FF84EBH   LINE      CODE     ---       #97
      00FF84FFH   LINE      CODE     ---       #98
      00FF8507H   LINE      CODE     ---       #99
      00FF8519H   LINE      CODE     ---       #100
L251 LINKER/LOCATER V4.66.93.0                                                        10/29/2024  08:37:11  PAGE 17


      00FF8521H   LINE      CODE     ---       #101
      00FF8533H   LINE      CODE     ---       #102
      00FF853BH   LINE      CODE     ---       #103
      00FF854DH   LINE      CODE     ---       #104
      00FF855FH   LINE      CODE     ---       #105
      00FF8567H   LINE      CODE     ---       #106
      00FF8579H   LINE      CODE     ---       #107
      00FF858BH   LINE      CODE     ---       #108
      00FF8593H   LINE      CODE     ---       #109
      00FF859BH   LINE      CODE     ---       #110
      00FF85ADH   LINE      CODE     ---       #111
      00FF85BFH   LINE      CODE     ---       #112
      00FF85D1H   LINE      CODE     ---       #113
      00FF85E3H   LINE      CODE     ---       #114
      00FF85F5H   LINE      CODE     ---       #115
      ---         BLOCKEND  ---      ---       LVL=0

      00FF0009H   BLOCK     CODE     ---       LVL=0
      00FF0009H   LINE      CODE     ---       #116
      00FF0009H   LINE      CODE     ---       #119
      ---         BLOCKEND  ---      ---       LVL=0

      ---         MODULE    ---      ---       CONFIG
      000000D0H   SFRSYM    DATA     BYTE      PSW
      0000009DH   SFRSYM    DATA     BYTE      IRCBAND
      00000097H   SFRSYM    DATA     BYTE      AUXR2
      000000EFH   SFRSYM    DATA     BYTE      AUXINTIF
      000000FDH   SFRSYM    DATA     BYTE      S4CON
      000000ACH   SFRSYM    DATA     BYTE      S3CON
      0000009AH   SFRSYM    DATA     BYTE      S2CON
      000000B7H   SFRSYM    DATA     BYTE      IPH
      000000CDH   SFRSYM    DATA     BYTE      SPSTAT
      000000DDH   SFRSYM    DATA     BYTE      T4T3M
      000000C1H   SFRSYM    DATA     BYTE      WDT_CONTR
      000000DFH   SFRSYM    DATA     BYTE      IP3
      000000F4H   SFRSYM    DATA     BYTE      USBCON
      000000B5H   SFRSYM    DATA     BYTE      IP2
      000000FFH   SFRSYM    DATA     BYTE      RSTCFG
      000000C7H   SFRSYM    DATA     BYTE      IAP_CONTR
      000000F9H   SFRSYM    DATA     BYTE      LINICR
      0000008EH   SFRSYM    DATA     BYTE      AUXR
      000000AFH   SFRSYM    DATA     BYTE      IE2
      00000088H   SFRSYM    DATA     BYTE      TCON
      00000089H   SFRSYM    DATA     BYTE      TMOD
      00000098H   SFRSYM    DATA     BYTE      SCON
      000000F1H   SFRSYM    DATA     BYTE      CANICR
      00000087H   SFRSYM    DATA     BYTE      PCON
      000000BCH   SFRSYM    DATA     BYTE      ADC_CONTR
      000000E7H   SFRSYM    DATA     BYTE      CMPCR2
      000000E6H   SFRSYM    DATA     BYTE      CMPCR1
      000000DEH   SFRSYM    DATA     BYTE      ADCCFG
      000000B8H   SFRSYM    DATA     BYTE      IP
      0000008FH   SFRSYM    DATA     BYTE      INTCLKO
      000000EEH   SFRSYM    DATA     BYTE      IP3H
      000000B6H   SFRSYM    DATA     BYTE      IP2H
      000000A8H   SFRSYM    DATA     BYTE      IE
      000000BBH   SFRSYM    DATA     BYTE      P_SW3
      000000BAH   SFRSYM    DATA     BYTE      P_SW2
      000000A2H   SFRSYM    DATA     BYTE      P_SW1
      000000CEH   SFRSYM    DATA     BYTE      SPCTL
      000000F8H   SFRSYM    DATA     BYTE      P7
      000000E8H   SFRSYM    DATA     BYTE      P6
      000000C8H   SFRSYM    DATA     BYTE      P5
      000000C0H   SFRSYM    DATA     BYTE      P4
      000000B0H   SFRSYM    DATA     BYTE      P3
L251 LINKER/LOCATER V4.66.93.0                                                        10/29/2024  08:37:11  PAGE 18


      000000A0H   SFRSYM    DATA     BYTE      P2
      00000090H   SFRSYM    DATA     BYTE      P1
      00000080H   SFRSYM    DATA     BYTE      P0

      ---         MODULE    ---      ---       lcd
      00FF83A6H   PUBLIC    CODE     ---       LCD_ShowFloatNum
      00FF7BFCH   PUBLIC    CODE     ---       LCD_ShowChar1
      00FF89EBH   PUBLIC    CODE     ---       LCD_ShowChinese
      00FF8AD8H   PUBLIC    CODE     ---       LCD_ShowFloatNum1
      00FF8BC4H   PUBLIC    CODE     ---       LCD_ShowIntNum
      00FF9047H   PUBLIC    CODE     ---       LCD_ShowPicture
      00FF9697H   PUBLIC    CODE     ---       LCD_Fill
      00FF9B62H   PUBLIC    CODE     ---       mypow
      00FF88FAH   PUBLIC    CODE     ---       Draw_Circle
      00FF8709H   PUBLIC    CODE     ---       LCD_DrawLine
      00FF9C4DH   PUBLIC    CODE     ---       LCD_DrawPoint
      00FF9502H   PUBLIC    CODE     ---       LCD_ShowString
      00FF647CH   PUBLIC    CODE     ---       LCD_ShowChar
      00FF6F76H   PUBLIC    CODE     ---       LCD_ShowChinese12x12
      00FF714AH   PUBLIC    CODE     ---       LCD_ShowChinese32x32
      00FF9382H   PUBLIC    CODE     ---       LCD_DrawRectangle
      00FF731EH   PUBLIC    CODE     ---       LCD_ShowChinese24x24
      00FF74F2H   PUBLIC    CODE     ---       LCD_ShowChinese16x16
      00FF000EH   PUBLIC    CODE     ---       tfont12
      00FF0076H   PUBLIC    CODE     ---       tfont32
      00FF00F8H   PUBLIC    CODE     ---       tfont24
      00FF0142H   PUBLIC    CODE     ---       tfont16
      00FF02DAH   PUBLIC    CODE     ---       ascii_4020
      00FF08F2H   PUBLIC    CODE     ---       ascii_4120
      00FF0F0AH   PUBLIC    CODE     ---       ascii_4220
      00FF1522H   PUBLIC    CODE     ---       ascii_4320
      00FF1B3AH   PUBLIC    CODE     ---       ascii_2412
      00FF2E2AH   PUBLIC    CODE     ---       ascii_1206
      00FF329EH   PUBLIC    CODE     ---       ascii_3216
      00FF4A5EH   PUBLIC    CODE     ---       ascii_1608
      00FF504EH   PUBLIC    CODE     ---       ascii_4828
      0000017BH   PUBLIC    EDATA    BYTE      ?LCD_Fill?BYTE
      00000201H   PUBLIC    EDATA    BYTE      ?LCD_DrawLine?BYTE
      00000291H   PUBLIC    EDATA    BYTE      ?LCD_DrawRectangle?BYTE
      00000278H   PUBLIC    EDATA    BYTE      ?LCD_ShowChinese?BYTE
      000001B1H   PUBLIC    EDATA    BYTE      ?LCD_ShowChinese12x12?BYTE
      000001C6H   PUBLIC    EDATA    BYTE      ?LCD_ShowChinese16x16?BYTE
      000001DBH   PUBLIC    EDATA    BYTE      ?LCD_ShowChinese24x24?BYTE
      000001F0H   PUBLIC    EDATA    BYTE      ?LCD_ShowChinese32x32?BYTE
      00000185H   PUBLIC    EDATA    BYTE      ?LCD_ShowChar?BYTE
      00000217H   PUBLIC    EDATA    BYTE      ?LCD_ShowChar1?BYTE
      0000017BH   PUBLIC    EDATA    BYTE      ?LCD_ShowString?BYTE
      00000255H   PUBLIC    EDATA    BYTE      ?LCD_ShowIntNum?BYTE
      0000023AH   PUBLIC    EDATA    BYTE      ?LCD_ShowFloatNum?BYTE
      00000269H   PUBLIC    EDATA    BYTE      ?LCD_ShowFloatNum1?BYTE
      0000025DH   PUBLIC    EDATA    BYTE      ?LCD_ShowPicture?BYTE
      000000D0H   SFRSYM    DATA     BYTE      PSW
      0000009DH   SFRSYM    DATA     BYTE      IRCBAND
      00000097H   SFRSYM    DATA     BYTE      AUXR2
      000000EFH   SFRSYM    DATA     BYTE      AUXINTIF
      000000FDH   SFRSYM    DATA     BYTE      S4CON
      000000ACH   SFRSYM    DATA     BYTE      S3CON
      0000009AH   SFRSYM    DATA     BYTE      S2CON
      000000B7H   SFRSYM    DATA     BYTE      IPH
      000000CDH   SFRSYM    DATA     BYTE      SPSTAT
      000000DDH   SFRSYM    DATA     BYTE      T4T3M
      000000C1H   SFRSYM    DATA     BYTE      WDT_CONTR
      000000DFH   SFRSYM    DATA     BYTE      IP3
      000000F4H   SFRSYM    DATA     BYTE      USBCON
      000000B5H   SFRSYM    DATA     BYTE      IP2
L251 LINKER/LOCATER V4.66.93.0                                                        10/29/2024  08:37:11  PAGE 19


      000000FFH   SFRSYM    DATA     BYTE      RSTCFG
      000000C7H   SFRSYM    DATA     BYTE      IAP_CONTR
      000000F9H   SFRSYM    DATA     BYTE      LINICR
      0000008EH   SFRSYM    DATA     BYTE      AUXR
      000000AFH   SFRSYM    DATA     BYTE      IE2
      00000088H   SFRSYM    DATA     BYTE      TCON
      00000089H   SFRSYM    DATA     BYTE      TMOD
      00000098H   SFRSYM    DATA     BYTE      SCON
      000000F1H   SFRSYM    DATA     BYTE      CANICR
      00000087H   SFRSYM    DATA     BYTE      PCON
      000000BCH   SFRSYM    DATA     BYTE      ADC_CONTR
      000000E7H   SFRSYM    DATA     BYTE      CMPCR2
      000000E6H   SFRSYM    DATA     BYTE      CMPCR1
      000000DEH   SFRSYM    DATA     BYTE      ADCCFG
      000000B8H   SFRSYM    DATA     BYTE      IP
      0000008FH   SFRSYM    DATA     BYTE      INTCLKO
      000000EEH   SFRSYM    DATA     BYTE      IP3H
      000000B6H   SFRSYM    DATA     BYTE      IP2H
      000000A8H   SFRSYM    DATA     BYTE      IE
      000000BBH   SFRSYM    DATA     BYTE      P_SW3
      000000BAH   SFRSYM    DATA     BYTE      P_SW2
      000000A2H   SFRSYM    DATA     BYTE      P_SW1
      000000CEH   SFRSYM    DATA     BYTE      SPCTL
      000000F8H   SFRSYM    DATA     BYTE      P7
      000000E8H   SFRSYM    DATA     BYTE      P6
      000000C8H   SFRSYM    DATA     BYTE      P5
      000000C0H   SFRSYM    DATA     BYTE      P4
      000000B0H   SFRSYM    DATA     BYTE      P3
      000000A0H   SFRSYM    DATA     BYTE      P2
      00000090H   SFRSYM    DATA     BYTE      P1
      00000080H   SFRSYM    DATA     BYTE      P0

      00FF9697H   BLOCK     CODE     ---       LVL=0
      0000017FH   SYMBOL    EDATA    WORD      xsta
      00000181H   SYMBOL    EDATA    WORD      ysta
      WR14        REGSYM    ---      WORD      xend
      WR12        REGSYM    ---      WORD      yend
      00000183H   SYMBOL    EDATA    WORD      color
      00FF96A5H   BLOCK     CODE     NEAR LAB  LVL=1
      00000185H   SYMBOL    EDATA    WORD      i
      00000187H   SYMBOL    EDATA    WORD      j
      ---         BLOCKEND  ---      ---       LVL=1
      00FF9697H   LINE      CODE     ---       #13
      00FF96A5H   LINE      CODE     ---       #14
      00FF96A5H   LINE      CODE     ---       #16
      00FF96B0H   LINE      CODE     ---       #17
      00FF96B6H   LINE      CODE     ---       #19
      00FF96BCH   LINE      CODE     ---       #21
      00FF96C3H   LINE      CODE     ---       #22
      00FF96D3H   LINE      CODE     ---       #23
      00FF96E3H   LINE      CODE     ---       #24
      ---         BLOCKEND  ---      ---       LVL=0

      00FF9C4DH   BLOCK     CODE     ---       LVL=0
      WR2         REGSYM    ---      WORD      x
      WR0         REGSYM    ---      WORD      y
      WR14        REGSYM    ---      WORD      color
      00FF9C4DH   LINE      CODE     ---       #48
      00FF9C55H   LINE      CODE     ---       #50
      00FF9C58H   LINE      CODE     ---       #51
      00FF9C5DH   LINE      CODE     ---       #52
      ---         BLOCKEND  ---      ---       LVL=0

      00FF8709H   BLOCK     CODE     ---       LVL=0
      WR2         REGSYM    ---      WORD      x1
L251 LINKER/LOCATER V4.66.93.0                                                        10/29/2024  08:37:11  PAGE 20


      WR4         REGSYM    ---      WORD      y1
      WR10        REGSYM    ---      WORD      x2
      WR0         REGSYM    ---      WORD      y2
      00000209H   SYMBOL    EDATA    WORD      color
      00FF870FH   BLOCK     CODE     NEAR LAB  LVL=1
      0000020BH   SYMBOL    EDATA    WORD      t
      0000020DH   SYMBOL    EDATA    INT       xerr
      0000020FH   SYMBOL    EDATA    INT       yerr
      WR14        REGSYM    ---      INT       delta_x
      WR12        REGSYM    ---      INT       delta_y
      00000211H   SYMBOL    EDATA    INT       distance
      00000213H   SYMBOL    EDATA    INT       incx
      00000215H   SYMBOL    EDATA    INT       incy
      00000217H   SYMBOL    EDATA    INT       uRow
      00000219H   SYMBOL    EDATA    INT       uCol
      ---         BLOCKEND  ---      ---       LVL=1
      00FF8709H   LINE      CODE     ---       #61
      00FF870FH   LINE      CODE     ---       #62
      00FF870FH   LINE      CODE     ---       #64
      00FF8719H   LINE      CODE     ---       #66
      00FF871DH   LINE      CODE     ---       #67
      00FF8721H   LINE      CODE     ---       #68
      00FF8725H   LINE      CODE     ---       #69
      00FF8729H   LINE      CODE     ---       #70
      00FF8739H   LINE      CODE     ---       #71
      00FF8743H   LINE      CODE     ---       #72
      00FF8751H   LINE      CODE     ---       #73
      00FF8761H   LINE      CODE     ---       #74
      00FF876BH   LINE      CODE     ---       #75
      00FF8779H   LINE      CODE     ---       #76
      00FF8783H   LINE      CODE     ---       #77
      00FF8787H   LINE      CODE     ---       #78
      00FF878BH   LINE      CODE     ---       #80
      00FF879AH   LINE      CODE     ---       #81
      00FF87A4H   LINE      CODE     ---       #82
      00FF87AEH   LINE      CODE     ---       #83
      00FF87B8H   LINE      CODE     ---       #85
      00FF87C4H   LINE      CODE     ---       #86
      00FF87D0H   LINE      CODE     ---       #87
      00FF87D0H   LINE      CODE     ---       #88
      00FF87D6H   LINE      CODE     ---       #90
      00FF87E2H   LINE      CODE     ---       #91
      00FF87EEH   LINE      CODE     ---       #92
      00FF8804H   LINE      CODE     ---       #94
      ---         BLOCKEND  ---      ---       LVL=0

      00FF9382H   BLOCK     CODE     ---       LVL=0
      00000295H   SYMBOL    EDATA    WORD      x1
      00000297H   SYMBOL    EDATA    WORD      y1
      WR12        REGSYM    ---      WORD      x2
      WR14        REGSYM    ---      WORD      y2
      00000299H   SYMBOL    EDATA    WORD      color
      00FF9382H   LINE      CODE     ---       #137
      00FF9390H   LINE      CODE     ---       #139
      00FF93A5H   LINE      CODE     ---       #140
      00FF93BCH   LINE      CODE     ---       #141
      00FF93D1H   LINE      CODE     ---       #142
      00FF93E6H   LINE      CODE     ---       #143
      ---         BLOCKEND  ---      ---       LVL=0

      00FF88FAH   BLOCK     CODE     ---       LVL=0
      0000028EH   SYMBOL    EDATA    WORD      x0
      WR12        REGSYM    ---      WORD      y0
      00000290H   SYMBOL    EDATA    BYTE      r
      WR14        REGSYM    ---      WORD      color
L251 LINKER/LOCATER V4.66.93.0                                                        10/29/2024  08:37:11  PAGE 21


      00FF8908H   BLOCK     CODE     NEAR LAB  LVL=1
      00000291H   SYMBOL    EDATA    INT       a
      00000293H   SYMBOL    EDATA    INT       b
      ---         BLOCKEND  ---      ---       LVL=1
      00FF88FAH   LINE      CODE     ---       #153
      00FF8908H   LINE      CODE     ---       #154
      00FF8908H   LINE      CODE     ---       #156
      00FF8912H   LINE      CODE     ---       #157
      00FF8915H   LINE      CODE     ---       #159
      00FF8928H   LINE      CODE     ---       #160
      00FF893BH   LINE      CODE     ---       #161
      00FF894EH   LINE      CODE     ---       #162
      00FF8961H   LINE      CODE     ---       #163
      00FF8974H   LINE      CODE     ---       #164
      00FF8987H   LINE      CODE     ---       #165
      00FF899AH   LINE      CODE     ---       #166
      00FF89ADH   LINE      CODE     ---       #167
      00FF89B7H   LINE      CODE     ---       #168
      00FF89D5H   LINE      CODE     ---       #170
      00FF89DBH   LINE      CODE     ---       #171
      00FF89E8H   LINE      CODE     ---       #173
      ---         BLOCKEND  ---      ---       LVL=0

      00FF89EBH   BLOCK     CODE     ---       LVL=0
      0000027CH   SYMBOL    EDATA    WORD      x
      0000027EH   SYMBOL    EDATA    WORD      y
      REG=3       REGSYM    ---      ---       s
      00000280H   SYMBOL    EDATA    WORD      fc
      00000282H   SYMBOL    EDATA    WORD      bc
      00000284H   SYMBOL    EDATA    BYTE      sizey
      00000285H   SYMBOL    EDATA    BYTE      mode
      00FF89EBH   LINE      CODE     ---       #185
      00FF89F7H   LINE      CODE     ---       #187
      00FF89FAH   LINE      CODE     ---       #189
      00FF8A29H   LINE      CODE     ---       #190
      00FF8A5BH   LINE      CODE     ---       #191
      00FF8A8DH   LINE      CODE     ---       #192
      00FF8ABDH   LINE      CODE     ---       #193
      00FF8ABDH   LINE      CODE     ---       #194
      00FF8ABFH   LINE      CODE     ---       #195
      00FF8ACDH   LINE      CODE     ---       #196
      00FF8AD5H   LINE      CODE     ---       #197
      ---         BLOCKEND  ---      ---       LVL=0

      00FF6F76H   BLOCK     CODE     ---       LVL=0
      000001B5H   SYMBOL    EDATA    WORD      x
      000001B7H   SYMBOL    EDATA    WORD      y
      REG=3       REGSYM    ---      ---       s
      000001B9H   SYMBOL    EDATA    WORD      fc
      000001BBH   SYMBOL    EDATA    WORD      bc
      000001BDH   SYMBOL    EDATA    BYTE      sizey
      000001BEH   SYMBOL    EDATA    BYTE      mode
      00FF6F86H   BLOCK     CODE     NEAR LAB  LVL=1
      000001BFH   SYMBOL    EDATA    BYTE      i
      000001C0H   SYMBOL    EDATA    BYTE      j
      000001C1H   SYMBOL    EDATA    BYTE      m
      000001C2H   SYMBOL    EDATA    WORD      k
      000001C4H   SYMBOL    EDATA    WORD      HZnum
      000001C6H   SYMBOL    EDATA    WORD      TypefaceNum
      000001C8H   SYMBOL    EDATA    WORD      x0
      ---         BLOCKEND  ---      ---       LVL=1
      00FF6F76H   LINE      CODE     ---       #209
      00FF6F86H   LINE      CODE     ---       #210
      00FF6F86H   LINE      CODE     ---       #211
      00FF6F8BH   LINE      CODE     ---       #215
L251 LINKER/LOCATER V4.66.93.0                                                        10/29/2024  08:37:11  PAGE 22


      00FF6F93H   LINE      CODE     ---       #216
      00FF6FB9H   LINE      CODE     ---       #218
      00FF6FC1H   LINE      CODE     ---       #219
      00FF6FC6H   LINE      CODE     ---       #221
      00FF6FFFH   LINE      CODE     ---       #223
      00FF701EH   LINE      CODE     ---       #224
      00FF7022H   LINE      CODE     ---       #226
      00FF7027H   LINE      CODE     ---       #228
      00FF702DH   LINE      CODE     ---       #230
      00FF7066H   LINE      CODE     ---       #231
      00FF706DH   LINE      CODE     ---       #232
      00FF7076H   LINE      CODE     ---       #233
      00FF7089H   LINE      CODE     ---       #235
      00FF708EH   LINE      CODE     ---       #236
      00FF7091H   LINE      CODE     ---       #237
      00FF7091H   LINE      CODE     ---       #241
      00FF70D3H   LINE      CODE     ---       #242
      00FF70DDH   LINE      CODE     ---       #243
      00FF70EFH   LINE      CODE     ---       #245
      00FF70F7H   LINE      CODE     ---       #246
      00FF7101H   LINE      CODE     ---       #247
      00FF7103H   LINE      CODE     ---       #248
      00FF7103H   LINE      CODE     ---       #250
      00FF7118H   LINE      CODE     ---       #251
      00FF7130H   LINE      CODE     ---       #252
      00FF7130H   LINE      CODE     ---       #253
      00FF7130H   LINE      CODE     ---       #254
      00FF7147H   LINE      CODE     ---       #255
      ---         BLOCKEND  ---      ---       LVL=0

      00FF74F2H   BLOCK     CODE     ---       LVL=0
      000001CAH   SYMBOL    EDATA    WORD      x
      000001CCH   SYMBOL    EDATA    WORD      y
      REG=3       REGSYM    ---      ---       s
      000001CEH   SYMBOL    EDATA    WORD      fc
      000001D0H   SYMBOL    EDATA    WORD      bc
      000001D2H   SYMBOL    EDATA    BYTE      sizey
      000001D3H   SYMBOL    EDATA    BYTE      mode
      00FF7502H   BLOCK     CODE     NEAR LAB  LVL=1
      000001D4H   SYMBOL    EDATA    BYTE      i
      000001D5H   SYMBOL    EDATA    BYTE      j
      000001D6H   SYMBOL    EDATA    BYTE      m
      000001D7H   SYMBOL    EDATA    WORD      k
      000001D9H   SYMBOL    EDATA    WORD      HZnum
      000001DBH   SYMBOL    EDATA    WORD      TypefaceNum
      000001DDH   SYMBOL    EDATA    WORD      x0
      ---         BLOCKEND  ---      ---       LVL=1
      00FF74F2H   LINE      CODE     ---       #267
      00FF7502H   LINE      CODE     ---       #268
      00FF7502H   LINE      CODE     ---       #269
      00FF7507H   LINE      CODE     ---       #273
      00FF750FH   LINE      CODE     ---       #274
      00FF7535H   LINE      CODE     ---       #275
      00FF753DH   LINE      CODE     ---       #276
      00FF7542H   LINE      CODE     ---       #278
      00FF757BH   LINE      CODE     ---       #280
      00FF759AH   LINE      CODE     ---       #281
      00FF759EH   LINE      CODE     ---       #283
      00FF75A3H   LINE      CODE     ---       #285
      00FF75A9H   LINE      CODE     ---       #287
      00FF75E2H   LINE      CODE     ---       #288
      00FF75E9H   LINE      CODE     ---       #289
      00FF75F2H   LINE      CODE     ---       #290
      00FF7605H   LINE      CODE     ---       #292
      00FF760AH   LINE      CODE     ---       #293
L251 LINKER/LOCATER V4.66.93.0                                                        10/29/2024  08:37:11  PAGE 23


      00FF760DH   LINE      CODE     ---       #294
      00FF760DH   LINE      CODE     ---       #298
      00FF764FH   LINE      CODE     ---       #299
      00FF7659H   LINE      CODE     ---       #300
      00FF766BH   LINE      CODE     ---       #302
      00FF7673H   LINE      CODE     ---       #303
      00FF767DH   LINE      CODE     ---       #304
      00FF767FH   LINE      CODE     ---       #305
      00FF767FH   LINE      CODE     ---       #307
      00FF7694H   LINE      CODE     ---       #308
      00FF76ACH   LINE      CODE     ---       #309
      00FF76ACH   LINE      CODE     ---       #310
      00FF76ACH   LINE      CODE     ---       #311
      00FF76C3H   LINE      CODE     ---       #312
      ---         BLOCKEND  ---      ---       LVL=0

      00FF731EH   BLOCK     CODE     ---       LVL=0
      000001DFH   SYMBOL    EDATA    WORD      x
      000001E1H   SYMBOL    EDATA    WORD      y
      REG=3       REGSYM    ---      ---       s
      000001E3H   SYMBOL    EDATA    WORD      fc
      000001E5H   SYMBOL    EDATA    WORD      bc
      000001E7H   SYMBOL    EDATA    BYTE      sizey
      000001E8H   SYMBOL    EDATA    BYTE      mode
      00FF732EH   BLOCK     CODE     NEAR LAB  LVL=1
      000001E9H   SYMBOL    EDATA    BYTE      i
      000001EAH   SYMBOL    EDATA    BYTE      j
      000001EBH   SYMBOL    EDATA    BYTE      m
      000001ECH   SYMBOL    EDATA    WORD      k
      000001EEH   SYMBOL    EDATA    WORD      HZnum
      000001F0H   SYMBOL    EDATA    WORD      TypefaceNum
      000001F2H   SYMBOL    EDATA    WORD      x0
      ---         BLOCKEND  ---      ---       LVL=1
      00FF731EH   LINE      CODE     ---       #325
      00FF732EH   LINE      CODE     ---       #326
      00FF732EH   LINE      CODE     ---       #327
      00FF7333H   LINE      CODE     ---       #331
      00FF733BH   LINE      CODE     ---       #332
      00FF7361H   LINE      CODE     ---       #333
      00FF7369H   LINE      CODE     ---       #334
      00FF736EH   LINE      CODE     ---       #336
      00FF73A7H   LINE      CODE     ---       #338
      00FF73C6H   LINE      CODE     ---       #339
      00FF73CAH   LINE      CODE     ---       #341
      00FF73CFH   LINE      CODE     ---       #343
      00FF73D5H   LINE      CODE     ---       #345
      00FF740EH   LINE      CODE     ---       #346
      00FF7415H   LINE      CODE     ---       #347
      00FF741EH   LINE      CODE     ---       #348
      00FF7431H   LINE      CODE     ---       #350
      00FF7436H   LINE      CODE     ---       #351
      00FF7439H   LINE      CODE     ---       #352
      00FF7439H   LINE      CODE     ---       #356
      00FF747BH   LINE      CODE     ---       #357
      00FF7485H   LINE      CODE     ---       #358
      00FF7497H   LINE      CODE     ---       #360
      00FF749FH   LINE      CODE     ---       #361
      00FF74A9H   LINE      CODE     ---       #362
      00FF74ABH   LINE      CODE     ---       #363
      00FF74ABH   LINE      CODE     ---       #365
      00FF74C0H   LINE      CODE     ---       #366
      00FF74D8H   LINE      CODE     ---       #367
      00FF74D8H   LINE      CODE     ---       #368
      00FF74D8H   LINE      CODE     ---       #369
      00FF74EFH   LINE      CODE     ---       #370
L251 LINKER/LOCATER V4.66.93.0                                                        10/29/2024  08:37:11  PAGE 24


      ---         BLOCKEND  ---      ---       LVL=0

      00FF714AH   BLOCK     CODE     ---       LVL=0
      000001F4H   SYMBOL    EDATA    WORD      x
      000001F6H   SYMBOL    EDATA    WORD      y
      REG=3       REGSYM    ---      ---       s
      000001F8H   SYMBOL    EDATA    WORD      fc
      000001FAH   SYMBOL    EDATA    WORD      bc
      000001FCH   SYMBOL    EDATA    BYTE      sizey
      000001FDH   SYMBOL    EDATA    BYTE      mode
      00FF715AH   BLOCK     CODE     NEAR LAB  LVL=1
      000001FEH   SYMBOL    EDATA    BYTE      i
      000001FFH   SYMBOL    EDATA    BYTE      j
      00000200H   SYMBOL    EDATA    BYTE      m
      00000201H   SYMBOL    EDATA    WORD      k
      00000203H   SYMBOL    EDATA    WORD      HZnum
      00000205H   SYMBOL    EDATA    WORD      TypefaceNum
      00000207H   SYMBOL    EDATA    WORD      x0
      ---         BLOCKEND  ---      ---       LVL=1
      00FF714AH   LINE      CODE     ---       #382
      00FF715AH   LINE      CODE     ---       #383
      00FF715AH   LINE      CODE     ---       #384
      00FF715FH   LINE      CODE     ---       #388
      00FF7167H   LINE      CODE     ---       #389
      00FF718DH   LINE      CODE     ---       #390
      00FF7195H   LINE      CODE     ---       #391
      00FF719AH   LINE      CODE     ---       #393
      00FF71D3H   LINE      CODE     ---       #395
      00FF71F2H   LINE      CODE     ---       #396
      00FF71F6H   LINE      CODE     ---       #398
      00FF71FBH   LINE      CODE     ---       #400
      00FF7201H   LINE      CODE     ---       #402
      00FF723AH   LINE      CODE     ---       #403
      00FF7241H   LINE      CODE     ---       #404
      00FF724AH   LINE      CODE     ---       #405
      00FF725DH   LINE      CODE     ---       #407
      00FF7262H   LINE      CODE     ---       #408
      00FF7265H   LINE      CODE     ---       #409
      00FF7265H   LINE      CODE     ---       #413
      00FF72A7H   LINE      CODE     ---       #414
      00FF72B1H   LINE      CODE     ---       #415
      00FF72C3H   LINE      CODE     ---       #417
      00FF72CBH   LINE      CODE     ---       #418
      00FF72D5H   LINE      CODE     ---       #419
      00FF72D7H   LINE      CODE     ---       #420
      00FF72D7H   LINE      CODE     ---       #422
      00FF72ECH   LINE      CODE     ---       #423
      00FF7304H   LINE      CODE     ---       #424
      00FF7304H   LINE      CODE     ---       #425
      00FF7304H   LINE      CODE     ---       #426
      00FF731BH   LINE      CODE     ---       #427
      ---         BLOCKEND  ---      ---       LVL=0

      00FF647CH   BLOCK     CODE     ---       LVL=0
      WR14        REGSYM    ---      WORD      x
      WR12        REGSYM    ---      WORD      y
      00000189H   SYMBOL    EDATA    BYTE      num
      0000018AH   SYMBOL    EDATA    WORD      fc
      0000018CH   SYMBOL    EDATA    WORD      bc
      0000018EH   SYMBOL    EDATA    BYTE      sizey
      0000018FH   SYMBOL    EDATA    BYTE      mode
      00FF648EH   BLOCK     CODE     NEAR LAB  LVL=1
      00000190H   SYMBOL    EDATA    BYTE      temp
      00000191H   SYMBOL    EDATA    BYTE      sizex
      00000192H   SYMBOL    EDATA    BYTE      t
L251 LINKER/LOCATER V4.66.93.0                                                        10/29/2024  08:37:11  PAGE 25


      00000193H   SYMBOL    EDATA    BYTE      m
      00000194H   SYMBOL    EDATA    WORD      i
      00000196H   SYMBOL    EDATA    WORD      TypefaceNum
      00000198H   SYMBOL    EDATA    WORD      x0
      ---         BLOCKEND  ---      ---       LVL=1
      00FF647CH   LINE      CODE     ---       #440
      00FF648EH   LINE      CODE     ---       #441
      00FF648EH   LINE      CODE     ---       #442
      00FF6493H   LINE      CODE     ---       #444
      00FF6497H   LINE      CODE     ---       #445
      00FF64A5H   LINE      CODE     ---       #446
      00FF64A8H   LINE      CODE     ---       #447
      00FF64AEH   LINE      CODE     ---       #448
      00FF64D6H   LINE      CODE     ---       #449
      00FF6501H   LINE      CODE     ---       #450
      00FF650DH   LINE      CODE     ---       #452
      00FF651BH   LINE      CODE     ---       #453
      00FF652AH   LINE      CODE     ---       #454
      00FF652FH   LINE      CODE     ---       #456
      00FF654BH   LINE      CODE     ---       #457
      00FF6563H   LINE      CODE     ---       #458
      00FF657AH   LINE      CODE     ---       #459
      00FF6591H   LINE      CODE     ---       #460
      00FF65A8H   LINE      CODE     ---       #461
      00FF65BFH   LINE      CODE     ---       #462
      00FF65D6H   LINE      CODE     ---       #463
      00FF65F3H   LINE      CODE     ---       #464
      00FF6619H   LINE      CODE     ---       #465
      00FF6619H   LINE      CODE     ---       #466
      00FF661EH   LINE      CODE     ---       #468
      00FF6624H   LINE      CODE     ---       #470
      00FF6645H   LINE      CODE     ---       #471
      00FF664CH   LINE      CODE     ---       #472
      00FF6655H   LINE      CODE     ---       #473
      00FF6668H   LINE      CODE     ---       #475
      00FF666DH   LINE      CODE     ---       #476
      00FF666FH   LINE      CODE     ---       #477
      00FF666FH   LINE      CODE     ---       #481
      00FF6695H   LINE      CODE     ---       #482
      00FF6697H   LINE      CODE     ---       #483
      00FF66A7H   LINE      CODE     ---       #485
      00FF66ABH   LINE      CODE     ---       #486
      00FF66ADH   LINE      CODE     ---       #487
      00FF66AFH   LINE      CODE     ---       #488
      00FF66AFH   LINE      CODE     ---       #490
      00FF66C4H   LINE      CODE     ---       #491
      00FF66DBH   LINE      CODE     ---       #492
      ---         BLOCKEND  ---      ---       LVL=0

      00FF7BFCH   BLOCK     CODE     ---       LVL=0
      WR14        REGSYM    ---      WORD      x
      WR12        REGSYM    ---      WORD      y
      0000021BH   SYMBOL    EDATA    BYTE      num
      0000021CH   SYMBOL    EDATA    WORD      fc
      0000021EH   SYMBOL    EDATA    WORD      bc
      00000220H   SYMBOL    EDATA    BYTE      sizey
      00000221H   SYMBOL    EDATA    BYTE      mode
      00FF7C0EH   BLOCK     CODE     NEAR LAB  LVL=1
      00000222H   SYMBOL    EDATA    BYTE      temp
      00000223H   SYMBOL    EDATA    BYTE      sizex
      00000224H   SYMBOL    EDATA    BYTE      t
      00000225H   SYMBOL    EDATA    BYTE      m
      00000226H   SYMBOL    EDATA    WORD      i
      00000228H   SYMBOL    EDATA    WORD      TypefaceNum
      0000022AH   SYMBOL    EDATA    WORD      x0
L251 LINKER/LOCATER V4.66.93.0                                                        10/29/2024  08:37:11  PAGE 26


      ---         BLOCKEND  ---      ---       LVL=1
      00FF7BFCH   LINE      CODE     ---       #503
      00FF7C0EH   LINE      CODE     ---       #504
      00FF7C0EH   LINE      CODE     ---       #505
      00FF7C13H   LINE      CODE     ---       #507
      00FF7C17H   LINE      CODE     ---       #508
      00FF7C25H   LINE      CODE     ---       #509
      00FF7C28H   LINE      CODE     ---       #510
      00FF7C2EH   LINE      CODE     ---       #511
      00FF7C56H   LINE      CODE     ---       #513
      00FF7C65H   LINE      CODE     ---       #514
      00FF7C6AH   LINE      CODE     ---       #516
      00FF7C85H   LINE      CODE     ---       #517
      00FF7C9CH   LINE      CODE     ---       #519
      00FF7CB9H   LINE      CODE     ---       #520
      00FF7CDFH   LINE      CODE     ---       #521
      00FF7CDFH   LINE      CODE     ---       #522
      00FF7CE4H   LINE      CODE     ---       #524
      00FF7CEAH   LINE      CODE     ---       #526
      00FF7D0BH   LINE      CODE     ---       #527
      00FF7D12H   LINE      CODE     ---       #528
      00FF7D1BH   LINE      CODE     ---       #529
      00FF7D2EH   LINE      CODE     ---       #531
      00FF7D33H   LINE      CODE     ---       #532
      00FF7D35H   LINE      CODE     ---       #533
      00FF7D35H   LINE      CODE     ---       #537
      00FF7D5BH   LINE      CODE     ---       #538
      00FF7D5DH   LINE      CODE     ---       #539
      00FF7D6DH   LINE      CODE     ---       #541
      00FF7D71H   LINE      CODE     ---       #542
      00FF7D73H   LINE      CODE     ---       #543
      00FF7D75H   LINE      CODE     ---       #544
      00FF7D75H   LINE      CODE     ---       #546
      00FF7D8AH   LINE      CODE     ---       #547
      00FF7DA1H   LINE      CODE     ---       #548
      ---         BLOCKEND  ---      ---       LVL=0

      00FF9502H   BLOCK     CODE     ---       LVL=0
      0000017FH   SYMBOL    EDATA    WORD      x
      00000181H   SYMBOL    EDATA    WORD      y
      REG=3       REGSYM    ---      ---       p
      00000183H   SYMBOL    EDATA    WORD      fc
      00000185H   SYMBOL    EDATA    WORD      bc
      00000187H   SYMBOL    EDATA    BYTE      sizey
      00000188H   SYMBOL    EDATA    BYTE      mode
      00FF9502H   LINE      CODE     ---       #560
      00FF9512H   LINE      CODE     ---       #562
      00FF9514H   LINE      CODE     ---       #564
      00FF953AH   LINE      CODE     ---       #565
      00FF954AH   LINE      CODE     ---       #566
      00FF954CH   LINE      CODE     ---       #567
      00FF9551H   LINE      CODE     ---       #568
      ---         BLOCKEND  ---      ---       LVL=0

      00FF9B62H   BLOCK     CODE     ---       LVL=0
      R8          REGSYM    ---      BYTE      m
      R9          REGSYM    ---      BYTE      n
      00FF9B66H   BLOCK     CODE     NEAR LAB  LVL=1
      DR4         REGSYM    ---      DWORD     result
      ---         BLOCKEND  ---      ---       LVL=1
      00FF9B62H   LINE      CODE     ---       #576
      00FF9B66H   LINE      CODE     ---       #577
      00FF9B66H   LINE      CODE     ---       #578
      00FF9B6AH   LINE      CODE     ---       #579
      00FF9B7BH   LINE      CODE     ---       #580
L251 LINKER/LOCATER V4.66.93.0                                                        10/29/2024  08:37:11  PAGE 27


      00FF9B7BH   LINE      CODE     ---       #581
      ---         BLOCKEND  ---      ---       LVL=0

      00FF8BC4H   BLOCK     CODE     ---       LVL=0
      00000259H   SYMBOL    EDATA    WORD      x
      WR12        REGSYM    ---      WORD      y
      0000025BH   SYMBOL    EDATA    WORD      num
      0000025DH   SYMBOL    EDATA    BYTE      len
      WR14        REGSYM    ---      WORD      fc
      0000025EH   SYMBOL    EDATA    WORD      bc
      00000260H   SYMBOL    EDATA    BYTE      sizey
      00FF8BD6H   BLOCK     CODE     NEAR LAB  LVL=1
      00000261H   SYMBOL    EDATA    BYTE      t
      00000262H   SYMBOL    EDATA    BYTE      temp
      00000263H   SYMBOL    EDATA    BYTE      enshow
      00000264H   SYMBOL    EDATA    BYTE      sizex
      ---         BLOCKEND  ---      ---       LVL=1
      00FF8BC4H   LINE      CODE     ---       #594
      00FF8BD6H   LINE      CODE     ---       #595
      00FF8BD6H   LINE      CODE     ---       #597
      00FF8BDBH   LINE      CODE     ---       #598
      00FF8BE7H   LINE      CODE     ---       #599
      00FF8BEAH   LINE      CODE     ---       #600
      00FF8BF0H   LINE      CODE     ---       #601
      00FF8BF4H   LINE      CODE     ---       #603
      00FF8C1FH   LINE      CODE     ---       #604
      00FF8C37H   LINE      CODE     ---       #606
      00FF8C3DH   LINE      CODE     ---       #608
      00FF8C58H   LINE      CODE     ---       #609
      00FF8C5AH   LINE      CODE     ---       #610
      00FF8C60H   LINE      CODE     ---       #612
      00FF8C60H   LINE      CODE     ---       #613
      00FF8C90H   LINE      CODE     ---       #614
      00FF8CA6H   LINE      CODE     ---       #615
      ---         BLOCKEND  ---      ---       LVL=0

      00FF83A6H   BLOCK     CODE     ---       LVL=0
      0000023DH   SYMBOL    EDATA    WORD      x
      WR12        REGSYM    ---      WORD      y
      0000023FH   SYMBOL    EDATA    DWORD     num
      R15         REGSYM    ---      BYTE      len
      00000243H   SYMBOL    EDATA    BYTE      point
      00000244H   SYMBOL    EDATA    WORD      fc
      00000246H   SYMBOL    EDATA    WORD      bc
      00000248H   SYMBOL    EDATA    BYTE      sizey
      00FF83B4H   BLOCK     CODE     NEAR LAB  LVL=1
      R14         REGSYM    ---      BYTE      sizex
      00000249H   SYMBOL    EDATA    WORD      temppoint
      ---         BLOCKEND  ---      ---       LVL=1
      00FF83A6H   LINE      CODE     ---       #628
      00FF83B4H   LINE      CODE     ---       #629
      00FF83B4H   LINE      CODE     ---       #633
      00FF83BEH   LINE      CODE     ---       #634
      00FF83C3H   LINE      CODE     ---       #635
      00FF83C6H   LINE      CODE     ---       #636
      00FF83E0H   LINE      CODE     ---       #638
      00FF83E6H   LINE      CODE     ---       #639
      00FF83ECH   LINE      CODE     ---       #640
      00FF83F2H   LINE      CODE     ---       #641
      00FF83F8H   LINE      CODE     ---       #642
      00FF8400H   LINE      CODE     ---       #643
      00FF8400H   LINE      CODE     ---       #644
      00FF8400H   LINE      CODE     ---       #645
      00FF8402H   LINE      CODE     ---       #646
      00FF8421H   LINE      CODE     ---       #649
L251 LINKER/LOCATER V4.66.93.0                                                        10/29/2024  08:37:11  PAGE 28


      00FF845BH   LINE      CODE     ---       #650
      00FF8493H   LINE      CODE     ---       #651
      00FF84D7H   LINE      CODE     ---       #652
      00FF84D7H   LINE      CODE     ---       #653
      ---         BLOCKEND  ---      ---       LVL=0

      00FF8AD8H   BLOCK     CODE     ---       LVL=0
      WR12        REGSYM    ---      WORD      x
      WR14        REGSYM    ---      WORD      y
      DR28        REGSYM    ---      FLOAT     num
      00000271H   SYMBOL    EDATA    BYTE      len
      00000272H   SYMBOL    EDATA    WORD      fc
      00000274H   SYMBOL    EDATA    WORD      bc
      00000276H   SYMBOL    EDATA    BYTE      sizey
      00FF8AE4H   BLOCK     CODE     NEAR LAB  LVL=1
      00000277H   SYMBOL    EDATA    BYTE      t
      00000278H   SYMBOL    EDATA    BYTE      temp
      00000279H   SYMBOL    EDATA    BYTE      sizex
      0000027AH   SYMBOL    EDATA    WORD      num1
      ---         BLOCKEND  ---      ---       LVL=1
      00FF8AD8H   LINE      CODE     ---       #664
      00FF8AE4H   LINE      CODE     ---       #665
      00FF8AE4H   LINE      CODE     ---       #668
      00FF8AF0H   LINE      CODE     ---       #669
      00FF8B02H   LINE      CODE     ---       #670
      00FF8B06H   LINE      CODE     ---       #672
      00FF8B31H   LINE      CODE     ---       #673
      00FF8B43H   LINE      CODE     ---       #675
      00FF8B69H   LINE      CODE     ---       #676
      00FF8B72H   LINE      CODE     ---       #677
      00FF8B7BH   LINE      CODE     ---       #678
      00FF8B7BH   LINE      CODE     ---       #679
      00FF8BABH   LINE      CODE     ---       #680
      00FF8BC1H   LINE      CODE     ---       #681
      ---         BLOCKEND  ---      ---       LVL=0

      00FF9047H   BLOCK     CODE     ---       LVL=0
      WR0         REGSYM    ---      WORD      x
      WR10        REGSYM    ---      WORD      y
      WR12        REGSYM    ---      WORD      length
      WR14        REGSYM    ---      WORD      width
      00000265H   SYMBOL    EDATA    ---       pic
      00FF9051H   BLOCK     CODE     NEAR LAB  LVL=1
      00000269H   SYMBOL    EDATA    WORD      i
      0000026BH   SYMBOL    EDATA    WORD      j
      0000026DH   SYMBOL    EDATA    DWORD     k
      ---         BLOCKEND  ---      ---       LVL=1
      00FF9047H   LINE      CODE     ---       #692
      00FF9051H   LINE      CODE     ---       #693
      00FF9051H   LINE      CODE     ---       #695
      00FF9057H   LINE      CODE     ---       #696
      00FF9068H   LINE      CODE     ---       #697
      00FF906CH   LINE      CODE     ---       #699
      00FF9070H   LINE      CODE     ---       #701
      00FF9084H   LINE      CODE     ---       #702
      00FF909AH   LINE      CODE     ---       #703
      00FF90A4H   LINE      CODE     ---       #704
      00FF90B4H   LINE      CODE     ---       #705
      00FF90C4H   LINE      CODE     ---       #706
      ---         BLOCKEND  ---      ---       LVL=0

      ---         MODULE    ---      ---       Adjust
      00FF9C93H   PUBLIC    CODE     ---       adjust_Init
      00FF9C0EH   PUBLIC    CODE     ---       adjust_reset
      00FF76C6H   PUBLIC    CODE     ---       adjust_menu
L251 LINKER/LOCATER V4.66.93.0                                                        10/29/2024  08:37:11  PAGE 29


      00FF9146H   PUBLIC    CODE     ---       linear_function
      0000019EH   PUBLIC    EDATA    ---       adjustv
      000001A9H   PUBLIC    EDATA    ---       adjusta
      00000177H   PUBLIC    EDATA    BYTE      ?linear_function?BYTE
      000000D0H   SFRSYM    DATA     BYTE      PSW
      0000009DH   SFRSYM    DATA     BYTE      IRCBAND
      00000097H   SFRSYM    DATA     BYTE      AUXR2
      000000EFH   SFRSYM    DATA     BYTE      AUXINTIF
      000000FDH   SFRSYM    DATA     BYTE      S4CON
      000000ACH   SFRSYM    DATA     BYTE      S3CON
      0000009AH   SFRSYM    DATA     BYTE      S2CON
      000000B7H   SFRSYM    DATA     BYTE      IPH
      000000CDH   SFRSYM    DATA     BYTE      SPSTAT
      000000DDH   SFRSYM    DATA     BYTE      T4T3M
      000000C1H   SFRSYM    DATA     BYTE      WDT_CONTR
      000000DFH   SFRSYM    DATA     BYTE      IP3
      000000F4H   SFRSYM    DATA     BYTE      USBCON
      000000B5H   SFRSYM    DATA     BYTE      IP2
      000000FFH   SFRSYM    DATA     BYTE      RSTCFG
      000000C7H   SFRSYM    DATA     BYTE      IAP_CONTR
      000000F9H   SFRSYM    DATA     BYTE      LINICR
      0000008EH   SFRSYM    DATA     BYTE      AUXR
      000000AFH   SFRSYM    DATA     BYTE      IE2
      00000088H   SFRSYM    DATA     BYTE      TCON
      00000089H   SFRSYM    DATA     BYTE      TMOD
      00000098H   SFRSYM    DATA     BYTE      SCON
      000000F1H   SFRSYM    DATA     BYTE      CANICR
      00000087H   SFRSYM    DATA     BYTE      PCON
      000000BCH   SFRSYM    DATA     BYTE      ADC_CONTR
      000000E7H   SFRSYM    DATA     BYTE      CMPCR2
      000000E6H   SFRSYM    DATA     BYTE      CMPCR1
      000000DEH   SFRSYM    DATA     BYTE      ADCCFG
      000000B8H   SFRSYM    DATA     BYTE      IP
      0000008FH   SFRSYM    DATA     BYTE      INTCLKO
      000000EEH   SFRSYM    DATA     BYTE      IP3H
      000000B6H   SFRSYM    DATA     BYTE      IP2H
      000000A8H   SFRSYM    DATA     BYTE      IE
      000000BBH   SFRSYM    DATA     BYTE      P_SW3
      000000BAH   SFRSYM    DATA     BYTE      P_SW2
      000000A2H   SFRSYM    DATA     BYTE      P_SW1
      000000CEH   SFRSYM    DATA     BYTE      SPCTL
      000000F8H   SFRSYM    DATA     BYTE      P7
      000000E8H   SFRSYM    DATA     BYTE      P6
      000000C8H   SFRSYM    DATA     BYTE      P5
      000000C0H   SFRSYM    DATA     BYTE      P4
      000000B0H   SFRSYM    DATA     BYTE      P3
      000000A0H   SFRSYM    DATA     BYTE      P2
      00000090H   SFRSYM    DATA     BYTE      P1
      00000080H   SFRSYM    DATA     BYTE      P0

      00FF9C93H   BLOCK     CODE     ---       LVL=0
      00FF9C93H   LINE      CODE     ---       #14
      00FF9C93H   LINE      CODE     ---       #20
      00FF9C95H   LINE      CODE     ---       #22
      00FF9C98H   LINE      CODE     ---       #23
      00FF9C9EH   LINE      CODE     ---       #25
      ---         BLOCKEND  ---      ---       LVL=0

      00FF9146H   BLOCK     CODE     ---       LVL=0
      WR28        REGSYM    ---      WORD      x1
      WR30        REGSYM    ---      WORD      y1
      WR10        REGSYM    ---      WORD      x2
      WR8         REGSYM    ---      WORD      y2
      0000017FH   SYMBOL    EDATA    WORD      x
      00000181H   SYMBOL    EDATA    FLOAT     k_t
L251 LINKER/LOCATER V4.66.93.0                                                        10/29/2024  08:37:11  PAGE 30


      00000185H   SYMBOL    EDATA    WORD      k_adj
      00FF914CH   BLOCK     CODE     NEAR LAB  LVL=1
      DR24        REGSYM    ---      FLOAT     k
      DR28        REGSYM    ---      FLOAT     b
      DR28        REGSYM    ---      FLOAT     dat
      ---         BLOCKEND  ---      ---       LVL=1
      00FF9146H   LINE      CODE     ---       #26
      00FF914CH   LINE      CODE     ---       #27
      00FF914CH   LINE      CODE     ---       #28
      00FF914CH   LINE      CODE     ---       #29
      00FF9163H   LINE      CODE     ---       #30
      00FF917BH   LINE      CODE     ---       #31
      00FF91AEH   LINE      CODE     ---       #32
      00FF91B7H   LINE      CODE     ---       #33
      00FF91B9H   LINE      CODE     ---       #34
      ---         BLOCKEND  ---      ---       LVL=0

      00FF76C6H   BLOCK     CODE     ---       LVL=0
      000001B4H   SYMBOL    EDATA    BYTE      keyset_sum
      00FF76C6H   LINE      CODE     ---       #36
      00FF76C6H   LINE      CODE     ---       #37
      00FF76C6H   LINE      CODE     ---       #39
      00FF76EAH   LINE      CODE     ---       #40
      00FF770EH   LINE      CODE     ---       #42
      00FF7732H   LINE      CODE     ---       #47
      00FF7756H   LINE      CODE     ---       #49
      00FF7765H   LINE      CODE     ---       #51
      00FF7768H   LINE      CODE     ---       #53
      00FF7771H   LINE      CODE     ---       #54
      00FF777BH   LINE      CODE     ---       #56
      00FF777BH   LINE      CODE     ---       #57
      00FF779FH   LINE      CODE     ---       #58
      00FF77ACH   LINE      CODE     ---       #59
      00FF77B8H   LINE      CODE     ---       #60
      00FF77BBH   LINE      CODE     ---       #61
      00FF77BBH   LINE      CODE     ---       #62
      00FF77C8H   LINE      CODE     ---       #63
      00FF77D4H   LINE      CODE     ---       #64
      00FF77D9H   LINE      CODE     ---       #65
      00FF77EAH   LINE      CODE     ---       #66
      00FF77F2H   LINE      CODE     ---       #67
      00FF77F6H   LINE      CODE     ---       #68
      00FF77FEH   LINE      CODE     ---       #69
      00FF7806H   LINE      CODE     ---       #70
      00FF780AH   LINE      CODE     ---       #71
      00FF7812H   LINE      CODE     ---       #72
      00FF7816H   LINE      CODE     ---       #73
      00FF781EH   LINE      CODE     ---       #74
      00FF7822H   LINE      CODE     ---       #75
      00FF7825H   LINE      CODE     ---       #76
      00FF782AH   LINE      CODE     ---       #77
      00FF783BH   LINE      CODE     ---       #78
      00FF7840H   LINE      CODE     ---       #79
      00FF7863H   LINE      CODE     ---       #80
      00FF7863H   LINE      CODE     ---       #81
      00FF7863H   LINE      CODE     ---       #82
      00FF7863H   LINE      CODE     ---       #83
      00FF7863H   LINE      CODE     ---       #84
      00FF786DH   LINE      CODE     ---       #85
      00FF7872H   LINE      CODE     ---       #86
      00FF7878H   LINE      CODE     ---       #87
      00FF788BH   LINE      CODE     ---       #88
      ---         BLOCKEND  ---      ---       LVL=0

      00FF9C0EH   BLOCK     CODE     ---       LVL=0
L251 LINKER/LOCATER V4.66.93.0                                                        10/29/2024  08:37:11  PAGE 31


      00FF9C0EH   LINE      CODE     ---       #89
      00FF9C0EH   LINE      CODE     ---       #91
      00FF9C1AH   LINE      CODE     ---       #93
      00FF9C1DH   LINE      CODE     ---       #95
      00FF9C23H   LINE      CODE     ---       #96
      ---         BLOCKEND  ---      ---       LVL=0

      ---         MODULE    ---      ---       multi_menu
      00FF6B74H   PUBLIC    CODE     ---       menu_update
      00FF95F7H   PUBLIC    CODE     ---       menu_level_2a
      00FF510EH   PUBLIC    CODE     ---       menu_level_3a
      00FF000AH   PUBLIC    CODE     ---       menu_level_2b
      00FF5EDEH   PUBLIC    CODE     ---       fun_font_color_a
      00FF61C0H   PUBLIC    CODE     ---       fun_font_color_v
      00FF6D8BH   PUBLIC    CODE     ---       menu_level_1
      00FF9A4FH   PUBLIC    CODE     ---       isEditableFunction
      00FF95A6H   PUBLIC    CODE     ---       fun_menu_adjust
      00FF586CH   PUBLIC    CODE     ---       fun_alarm_In
      00FF8DFEH   PUBLIC    CODE     ---       fun_menu_alarm
      00FF5BA5H   PUBLIC    CODE     ---       fun_alarm_Out
      00FF7A4AH   PUBLIC    CODE     ---       fun_0
      00FF66DEH   PUBLIC    CODE     ---       fun_alarm_H
      00FF6929H   PUBLIC    CODE     ---       fun_alarm_L
      00FF8E93H   PUBLIC    CODE     ---       fun_menu_main
      00FF825FH   PUBLIC    CODE     ---       fun_fong_style
      00FF7F3AH   PUBLIC    CODE     ---       fun_c21
      00FF9CC6H   PUBLIC    CODE     ---       fun_b33
      00FF9CC7H   PUBLIC    CODE     ---       fun_b34
      00FF788CH   PUBLIC    CODE     ---       font_str
      00FF8FB8H   PUBLIC    CODE     ---       fun_language
      00FF9236H   PUBLIC    CODE     ---       fun_menu_font
      00000021H   PUBLIC    EDATA    ---       table
      00000101H   PUBLIC    EDATA    BYTE      func_index
      00000103H   PUBLIC    EDATA    BYTE      last_index
      00000105H   PUBLIC    EDATA    ---       current_operation_index
      000000D0H   SFRSYM    DATA     BYTE      PSW
      0000009DH   SFRSYM    DATA     BYTE      IRCBAND
      00000097H   SFRSYM    DATA     BYTE      AUXR2
      000000EFH   SFRSYM    DATA     BYTE      AUXINTIF
      000000FDH   SFRSYM    DATA     BYTE      S4CON
      000000ACH   SFRSYM    DATA     BYTE      S3CON
      0000009AH   SFRSYM    DATA     BYTE      S2CON
      000000B7H   SFRSYM    DATA     BYTE      IPH
      000000CDH   SFRSYM    DATA     BYTE      SPSTAT
      000000DDH   SFRSYM    DATA     BYTE      T4T3M
      000000C1H   SFRSYM    DATA     BYTE      WDT_CONTR
      000000DFH   SFRSYM    DATA     BYTE      IP3
      000000F4H   SFRSYM    DATA     BYTE      USBCON
      000000B5H   SFRSYM    DATA     BYTE      IP2
      000000FFH   SFRSYM    DATA     BYTE      RSTCFG
      000000C7H   SFRSYM    DATA     BYTE      IAP_CONTR
      000000F9H   SFRSYM    DATA     BYTE      LINICR
      0000008EH   SFRSYM    DATA     BYTE      AUXR
      000000AFH   SFRSYM    DATA     BYTE      IE2
      000000B0H.2 SFRSYM    DATA     BIT       KEY_SET
      00000088H   SFRSYM    DATA     BYTE      TCON
      00000089H   SFRSYM    DATA     BYTE      TMOD
      00000098H   SFRSYM    DATA     BYTE      SCON
      000000F1H   SFRSYM    DATA     BYTE      CANICR
      00000087H   SFRSYM    DATA     BYTE      PCON
      000000BCH   SFRSYM    DATA     BYTE      ADC_CONTR
      000000E7H   SFRSYM    DATA     BYTE      CMPCR2
      000000E6H   SFRSYM    DATA     BYTE      CMPCR1
      000000DEH   SFRSYM    DATA     BYTE      ADCCFG
      000000B8H   SFRSYM    DATA     BYTE      IP
L251 LINKER/LOCATER V4.66.93.0                                                        10/29/2024  08:37:11  PAGE 32


      0000008FH   SFRSYM    DATA     BYTE      INTCLKO
      000000EEH   SFRSYM    DATA     BYTE      IP3H
      000000B6H   SFRSYM    DATA     BYTE      IP2H
      000000A8H   SFRSYM    DATA     BYTE      IE
      000000BBH   SFRSYM    DATA     BYTE      P_SW3
      000000BAH   SFRSYM    DATA     BYTE      P_SW2
      000000A2H   SFRSYM    DATA     BYTE      P_SW1
      000000CEH   SFRSYM    DATA     BYTE      SPCTL
      000000F8H   SFRSYM    DATA     BYTE      P7
      000000E8H   SFRSYM    DATA     BYTE      P6
      000000C8H   SFRSYM    DATA     BYTE      P5
      000000C0H   SFRSYM    DATA     BYTE      P4
      000000B0H   SFRSYM    DATA     BYTE      P3
      000000A0H   SFRSYM    DATA     BYTE      P2
      00000090H   SFRSYM    DATA     BYTE      P1
      00000080H   SFRSYM    DATA     BYTE      P0
      00000102H   SYMBOL    EDATA    BYTE      display1_state
      00000104H   SYMBOL    EDATA    BYTE      display2_state

      00FF6D8BH   BLOCK     CODE     ---       LVL=0
      00FF6D8BH   LINE      CODE     ---       #62
      00FF6D8BH   LINE      CODE     ---       #64
      00FF6D94H   LINE      CODE     ---       #66
      00FF6DBCH   LINE      CODE     ---       #67
      00FF6DE4H   LINE      CODE     ---       #68
      00FF6E0CH   LINE      CODE     ---       #69
      00FF6E34H   LINE      CODE     ---       #70
      00FF6E5CH   LINE      CODE     ---       #71
      00FF6E84H   LINE      CODE     ---       #72
      00FF6EACH   LINE      CODE     ---       #74
      00FF6EAEH   LINE      CODE     ---       #77
      00FF6ED6H   LINE      CODE     ---       #78
      00FF6EFEH   LINE      CODE     ---       #79
      00FF6F26H   LINE      CODE     ---       #81
      00FF6F26H   LINE      CODE     ---       #82
      00FF6F4EH   LINE      CODE     ---       #83
      ---         BLOCKEND  ---      ---       LVL=0

      00FF95F7H   BLOCK     CODE     ---       LVL=0
      00FF95F7H   LINE      CODE     ---       #85
      00FF95F7H   LINE      CODE     ---       #87
      00FF961FH   LINE      CODE     ---       #88
      ---         BLOCKEND  ---      ---       LVL=0

      00FF000AH   BLOCK     CODE     ---       LVL=0
      00FF000AH   LINE      CODE     ---       #90
      00FF000AH   LINE      CODE     ---       #92
      ---         BLOCKEND  ---      ---       LVL=0

      00FF8E93H   BLOCK     CODE     ---       LVL=0
      00FF8E93H   LINE      CODE     ---       #94
      00FF8E93H   LINE      CODE     ---       #96
      00FF8EA8H   LINE      CODE     ---       #98
      00FF8EC3H   LINE      CODE     ---       #99
      00FF8EE0H   LINE      CODE     ---       #100
      00FF8EFDH   LINE      CODE     ---       #101
      00FF8F25H   LINE      CODE     ---       #103
      00FF8F25H   LINE      CODE     ---       #104
      ---         BLOCKEND  ---      ---       LVL=0

      00FF788CH   BLOCK     CODE     ---       LVL=0
      00FF788CH   LINE      CODE     ---       #108
      00FF788CH   LINE      CODE     ---       #110
      00FF7895H   LINE      CODE     ---       #112
      00FF78BDH   LINE      CODE     ---       #113
L251 LINKER/LOCATER V4.66.93.0                                                        10/29/2024  08:37:11  PAGE 33


      00FF78E5H   LINE      CODE     ---       #114
      00FF790DH   LINE      CODE     ---       #115
      00FF7935H   LINE      CODE     ---       #116
      00FF7985H   LINE      CODE     ---       #117
      00FF79D0H   LINE      CODE     ---       #119
      00FF79D2H   LINE      CODE     ---       #122
      00FF79FAH   LINE      CODE     ---       #123
      00FF7A22H   LINE      CODE     ---       #124
      00FF7A4AH   LINE      CODE     ---       #125
      00FF7A4AH   LINE      CODE     ---       #126
      ---         BLOCKEND  ---      ---       LVL=0

      00FF9236H   BLOCK     CODE     ---       LVL=0
      00FF9236H   LINE      CODE     ---       #128
      00FF9236H   LINE      CODE     ---       #130
      00FF9245H   LINE      CODE     ---       #132
      00FF9260H   LINE      CODE     ---       #133
      00FF927DH   LINE      CODE     ---       #134
      00FF92A5H   LINE      CODE     ---       #136
      00FF92A5H   LINE      CODE     ---       #137
      ---         BLOCKEND  ---      ---       LVL=0

      00FF95A6H   BLOCK     CODE     ---       LVL=0
      00FF95A6H   LINE      CODE     ---       #139
      00FF95A6H   LINE      CODE     ---       #141
      00FF95B1H   LINE      CODE     ---       #143
      00FF95CCH   LINE      CODE     ---       #144
      00FF95F4H   LINE      CODE     ---       #146
      00FF95F4H   LINE      CODE     ---       #147
      ---         BLOCKEND  ---      ---       LVL=0

      00FF7F3AH   BLOCK     CODE     ---       LVL=0
      00FF7F3AH   LINE      CODE     ---       #149
      00FF7F3AH   LINE      CODE     ---       #151
      00FF7F62H   LINE      CODE     ---       #152
      00FF7F8AH   LINE      CODE     ---       #153
      00FF7FB7H   LINE      CODE     ---       #154
      00FF7FDFH   LINE      CODE     ---       #157
      00FF800EH   LINE      CODE     ---       #162
      00FF8041H   LINE      CODE     ---       #163
      00FF8073H   LINE      CODE     ---       #164
      00FF807FH   LINE      CODE     ---       #166
      00FF8082H   LINE      CODE     ---       #167
      00FF8087H   LINE      CODE     ---       #168
      00FF8091H   LINE      CODE     ---       #169
      00FF809FH   LINE      CODE     ---       #170
      00FF809FH   LINE      CODE     ---       #171
      00FF80ABH   LINE      CODE     ---       #173
      00FF80AEH   LINE      CODE     ---       #174
      00FF80B5H   LINE      CODE     ---       #175
      00FF80BFH   LINE      CODE     ---       #176
      00FF80CDH   LINE      CODE     ---       #177
      00FF80CDH   LINE      CODE     ---       #178
      ---         BLOCKEND  ---      ---       LVL=0

      00FF8FB8H   BLOCK     CODE     ---       LVL=0
      00FF8FB8H   LINE      CODE     ---       #180
      00FF8FB8H   LINE      CODE     ---       #183
      00FF8FC3H   LINE      CODE     ---       #185
      00FF8FEBH   LINE      CODE     ---       #186
      00FF8FEEH   LINE      CODE     ---       #187
      00FF8FEEH   LINE      CODE     ---       #188
      00FF9016H   LINE      CODE     ---       #189
      00FF901CH   LINE      CODE     ---       #190
      00FF901CH   LINE      CODE     ---       #191
L251 LINKER/LOCATER V4.66.93.0                                                        10/29/2024  08:37:11  PAGE 34


      00FF901FH   LINE      CODE     ---       #192
      ---         BLOCKEND  ---      ---       LVL=0

      00FF510EH   BLOCK     CODE     ---       LVL=0
      00FF510EH   LINE      CODE     ---       #195
      00FF510EH   LINE      CODE     ---       #197
      00FF5136H   LINE      CODE     ---       #198
      00FF515EH   LINE      CODE     ---       #199
      00FF5186H   LINE      CODE     ---       #200
      00FF51AEH   LINE      CODE     ---       #201
      00FF51B4H   LINE      CODE     ---       #202
      00FF51D9H   LINE      CODE     ---       #204
      00FF5201H   LINE      CODE     ---       #205
      00FF5207H   LINE      CODE     ---       #206
      00FF522CH   LINE      CODE     ---       #208
      00FF5254H   LINE      CODE     ---       #209
      00FF525AH   LINE      CODE     ---       #210
      00FF527FH   LINE      CODE     ---       #212
      00FF52A7H   LINE      CODE     ---       #213
      00FF52ADH   LINE      CODE     ---       #214
      00FF52D2H   LINE      CODE     ---       #216
      00FF52FAH   LINE      CODE     ---       #218
      00FF5322H   LINE      CODE     ---       #219
      00FF534AH   LINE      CODE     ---       #220
      00FF5372H   LINE      CODE     ---       #221
      00FF539AH   LINE      CODE     ---       #223
      00FF53A0H   LINE      CODE     ---       #224
      00FF53C5H   LINE      CODE     ---       #226
      00FF53EDH   LINE      CODE     ---       #227
      00FF53F3H   LINE      CODE     ---       #228
      00FF5418H   LINE      CODE     ---       #230
      00FF5440H   LINE      CODE     ---       #231
      00FF5446H   LINE      CODE     ---       #232
      00FF546BH   LINE      CODE     ---       #234
      00FF5493H   LINE      CODE     ---       #235
      00FF5499H   LINE      CODE     ---       #236
      00FF54BEH   LINE      CODE     ---       #238
      ---         BLOCKEND  ---      ---       LVL=0

      00FF8DFEH   BLOCK     CODE     ---       LVL=0
      00FF8DFEH   LINE      CODE     ---       #240
      00FF8DFEH   LINE      CODE     ---       #242
      00FF8E13H   LINE      CODE     ---       #244
      00FF8E2EH   LINE      CODE     ---       #245
      00FF8E4BH   LINE      CODE     ---       #246
      00FF8E68H   LINE      CODE     ---       #247
      00FF8E90H   LINE      CODE     ---       #249
      00FF8E90H   LINE      CODE     ---       #250
      ---         BLOCKEND  ---      ---       LVL=0

      00FF66DEH   BLOCK     CODE     ---       LVL=0
      00000107H   SYMBOL    EDATA    BYTE      i
      00FF66DEH   LINE      CODE     ---       #330
      00FF66DEH   LINE      CODE     ---       #331
      00FF66DEH   LINE      CODE     ---       #333
      00FF6702H   LINE      CODE     ---       #335
      00FF6709H   LINE      CODE     ---       #336
      00FF671BH   LINE      CODE     ---       #338
      00FF6748H   LINE      CODE     ---       #344
      00FF6770H   LINE      CODE     ---       #345
      00FF6776H   LINE      CODE     ---       #347
      00FF677DH   LINE      CODE     ---       #348
      00FF6789H   LINE      CODE     ---       #350
      00FF67ACH   LINE      CODE     ---       #351
      00FF67AEH   LINE      CODE     ---       #354
L251 LINKER/LOCATER V4.66.93.0                                                        10/29/2024  08:37:11  PAGE 35


      00FF67B5H   LINE      CODE     ---       #355
      00FF67C1H   LINE      CODE     ---       #357
      00FF67E9H   LINE      CODE     ---       #358
      00FF67E9H   LINE      CODE     ---       #360
      00FF67F0H   LINE      CODE     ---       #361
      00FF6802H   LINE      CODE     ---       #363
      00FF682FH   LINE      CODE     ---       #372
      00FF6857H   LINE      CODE     ---       #373
      00FF685DH   LINE      CODE     ---       #375
      00FF6864H   LINE      CODE     ---       #376
      00FF6870H   LINE      CODE     ---       #378
      00FF6893H   LINE      CODE     ---       #379
      00FF6895H   LINE      CODE     ---       #382
      00FF689CH   LINE      CODE     ---       #383
      00FF68A8H   LINE      CODE     ---       #385
      00FF68D0H   LINE      CODE     ---       #386
      00FF68D0H   LINE      CODE     ---       #387
      00FF68E2H   LINE      CODE     ---       #389
      00FF68E2H   LINE      CODE     ---       #390
      00FF68E6H   LINE      CODE     ---       #391
      00FF68E8H   LINE      CODE     ---       #392
      00FF68E8H   LINE      CODE     ---       #393
      00FF68ECH   LINE      CODE     ---       #394
      00FF68EEH   LINE      CODE     ---       #396
      00FF68EEH   LINE      CODE     ---       #397
      00FF68F5H   LINE      CODE     ---       #398
      00FF68F7H   LINE      CODE     ---       #399
      00FF68F7H   LINE      CODE     ---       #400
      00FF68FEH   LINE      CODE     ---       #401
      00FF68FEH   LINE      CODE     ---       #402
      00FF68FEH   LINE      CODE     ---       #403
      00FF6904H   LINE      CODE     ---       #405
      00FF6909H   LINE      CODE     ---       #406
      00FF6910H   LINE      CODE     ---       #407
      00FF6919H   LINE      CODE     ---       #408
      00FF6922H   LINE      CODE     ---       #409
      00FF6928H   LINE      CODE     ---       #410
      00FF6928H   LINE      CODE     ---       #412
      ---         BLOCKEND  ---      ---       LVL=0

      00FF6929H   BLOCK     CODE     ---       LVL=0
      00000108H   SYMBOL    EDATA    BYTE      i
      00FF6929H   LINE      CODE     ---       #413
      00FF6929H   LINE      CODE     ---       #414
      00FF6929H   LINE      CODE     ---       #416
      00FF694DH   LINE      CODE     ---       #418
      00FF6954H   LINE      CODE     ---       #419
      00FF6966H   LINE      CODE     ---       #421
      00FF6993H   LINE      CODE     ---       #426
      00FF69BBH   LINE      CODE     ---       #427
      00FF69C1H   LINE      CODE     ---       #429
      00FF69C8H   LINE      CODE     ---       #430
      00FF69D4H   LINE      CODE     ---       #432
      00FF69F7H   LINE      CODE     ---       #433
      00FF69F9H   LINE      CODE     ---       #436
      00FF6A00H   LINE      CODE     ---       #437
      00FF6A0CH   LINE      CODE     ---       #439
      00FF6A34H   LINE      CODE     ---       #440
      00FF6A34H   LINE      CODE     ---       #442
      00FF6A3BH   LINE      CODE     ---       #443
      00FF6A4DH   LINE      CODE     ---       #445
      00FF6A7AH   LINE      CODE     ---       #453
      00FF6AA2H   LINE      CODE     ---       #454
      00FF6AA8H   LINE      CODE     ---       #456
      00FF6AAFH   LINE      CODE     ---       #457
L251 LINKER/LOCATER V4.66.93.0                                                        10/29/2024  08:37:11  PAGE 36


      00FF6ABBH   LINE      CODE     ---       #459
      00FF6ADEH   LINE      CODE     ---       #460
      00FF6AE0H   LINE      CODE     ---       #463
      00FF6AE7H   LINE      CODE     ---       #464
      00FF6AF3H   LINE      CODE     ---       #466
      00FF6B1BH   LINE      CODE     ---       #467
      00FF6B1BH   LINE      CODE     ---       #468
      00FF6B2DH   LINE      CODE     ---       #470
      00FF6B2DH   LINE      CODE     ---       #471
      00FF6B31H   LINE      CODE     ---       #472
      00FF6B33H   LINE      CODE     ---       #473
      00FF6B33H   LINE      CODE     ---       #474
      00FF6B37H   LINE      CODE     ---       #475
      00FF6B39H   LINE      CODE     ---       #477
      00FF6B39H   LINE      CODE     ---       #478
      00FF6B40H   LINE      CODE     ---       #479
      00FF6B42H   LINE      CODE     ---       #480
      00FF6B42H   LINE      CODE     ---       #481
      00FF6B49H   LINE      CODE     ---       #482
      00FF6B49H   LINE      CODE     ---       #483
      00FF6B49H   LINE      CODE     ---       #484
      00FF6B4FH   LINE      CODE     ---       #486
      00FF6B54H   LINE      CODE     ---       #487
      00FF6B5BH   LINE      CODE     ---       #488
      00FF6B64H   LINE      CODE     ---       #489
      00FF6B6DH   LINE      CODE     ---       #490
      00FF6B73H   LINE      CODE     ---       #491
      00FF6B73H   LINE      CODE     ---       #493
      ---         BLOCKEND  ---      ---       LVL=0

      00FF586CH   BLOCK     CODE     ---       LVL=0
      00000109H   SYMBOL    EDATA    BYTE      i
      00FF586CH   LINE      CODE     ---       #494
      00FF586CH   LINE      CODE     ---       #495
      00FF586CH   LINE      CODE     ---       #497
      00FF5890H   LINE      CODE     ---       #498
      00FF58B8H   LINE      CODE     ---       #499
      00FF58E0H   LINE      CODE     ---       #501
      00FF58E7H   LINE      CODE     ---       #502
      00FF58F9H   LINE      CODE     ---       #504
      00FF5926H   LINE      CODE     ---       #505
      00FF592DH   LINE      CODE     ---       #506
      00FF593FH   LINE      CODE     ---       #508
      00FF596CH   LINE      CODE     ---       #513
      00FF5994H   LINE      CODE     ---       #514
      00FF599AH   LINE      CODE     ---       #516
      00FF59A1H   LINE      CODE     ---       #517
      00FF59ADH   LINE      CODE     ---       #519
      00FF59D0H   LINE      CODE     ---       #520
      00FF59D2H   LINE      CODE     ---       #523
      00FF59D9H   LINE      CODE     ---       #524
      00FF59E5H   LINE      CODE     ---       #526
      00FF5A0DH   LINE      CODE     ---       #527
      00FF5A0DH   LINE      CODE     ---       #529
      00FF5A14H   LINE      CODE     ---       #530
      00FF5A26H   LINE      CODE     ---       #532
      00FF5A53H   LINE      CODE     ---       #533
      00FF5A5AH   LINE      CODE     ---       #534
      00FF5A6CH   LINE      CODE     ---       #536
      00FF5A99H   LINE      CODE     ---       #540
      00FF5AC1H   LINE      CODE     ---       #541
      00FF5AC7H   LINE      CODE     ---       #543
      00FF5ACEH   LINE      CODE     ---       #544
      00FF5ADAH   LINE      CODE     ---       #546
      00FF5AFDH   LINE      CODE     ---       #547
L251 LINKER/LOCATER V4.66.93.0                                                        10/29/2024  08:37:11  PAGE 37


      00FF5AFFH   LINE      CODE     ---       #550
      00FF5B06H   LINE      CODE     ---       #551
      00FF5B12H   LINE      CODE     ---       #553
      00FF5B3AH   LINE      CODE     ---       #554
      00FF5B3AH   LINE      CODE     ---       #555
      00FF5B52H   LINE      CODE     ---       #557
      00FF5B56H   LINE      CODE     ---       #558
      00FF5B58H   LINE      CODE     ---       #559
      00FF5B5CH   LINE      CODE     ---       #560
      00FF5B5EH   LINE      CODE     ---       #561
      00FF5B62H   LINE      CODE     ---       #562
      00FF5B64H   LINE      CODE     ---       #563
      00FF5B68H   LINE      CODE     ---       #564
      00FF5B6AH   LINE      CODE     ---       #565
      00FF5B71H   LINE      CODE     ---       #566
      00FF5B73H   LINE      CODE     ---       #567
      00FF5B7AH   LINE      CODE     ---       #568
      00FF5B7AH   LINE      CODE     ---       #569
      00FF5B7AH   LINE      CODE     ---       #570
      00FF5B80H   LINE      CODE     ---       #572
      00FF5B85H   LINE      CODE     ---       #573
      00FF5B8CH   LINE      CODE     ---       #574
      00FF5B95H   LINE      CODE     ---       #575
      00FF5B9EH   LINE      CODE     ---       #576
      00FF5BA4H   LINE      CODE     ---       #577
      00FF5BA4H   LINE      CODE     ---       #578
      ---         BLOCKEND  ---      ---       LVL=0

      00FF5BA5H   BLOCK     CODE     ---       LVL=0
      0000010AH   SYMBOL    EDATA    BYTE      i
      00FF5BA5H   LINE      CODE     ---       #579
      00FF5BA5H   LINE      CODE     ---       #580
      00FF5BA5H   LINE      CODE     ---       #582
      00FF5BC9H   LINE      CODE     ---       #583
      00FF5BF1H   LINE      CODE     ---       #584
      00FF5C19H   LINE      CODE     ---       #586
      00FF5C20H   LINE      CODE     ---       #587
      00FF5C32H   LINE      CODE     ---       #589
      00FF5C5FH   LINE      CODE     ---       #590
      00FF5C66H   LINE      CODE     ---       #591
      00FF5C78H   LINE      CODE     ---       #593
      00FF5CA5H   LINE      CODE     ---       #598
      00FF5CCDH   LINE      CODE     ---       #599
      00FF5CD3H   LINE      CODE     ---       #601
      00FF5CDAH   LINE      CODE     ---       #602
      00FF5CE6H   LINE      CODE     ---       #604
      00FF5D09H   LINE      CODE     ---       #605
      00FF5D0BH   LINE      CODE     ---       #608
      00FF5D12H   LINE      CODE     ---       #609
      00FF5D1EH   LINE      CODE     ---       #611
      00FF5D46H   LINE      CODE     ---       #612
      00FF5D46H   LINE      CODE     ---       #614
      00FF5D4DH   LINE      CODE     ---       #615
      00FF5D5FH   LINE      CODE     ---       #617
      00FF5D8CH   LINE      CODE     ---       #618
      00FF5D93H   LINE      CODE     ---       #619
      00FF5DA5H   LINE      CODE     ---       #621
      00FF5DD2H   LINE      CODE     ---       #625
      00FF5DFAH   LINE      CODE     ---       #626
      00FF5E00H   LINE      CODE     ---       #628
      00FF5E07H   LINE      CODE     ---       #629
      00FF5E13H   LINE      CODE     ---       #631
      00FF5E36H   LINE      CODE     ---       #632
      00FF5E38H   LINE      CODE     ---       #635
      00FF5E3FH   LINE      CODE     ---       #636
L251 LINKER/LOCATER V4.66.93.0                                                        10/29/2024  08:37:11  PAGE 38


      00FF5E4BH   LINE      CODE     ---       #638
      00FF5E73H   LINE      CODE     ---       #639
      00FF5E73H   LINE      CODE     ---       #640
      00FF5E8BH   LINE      CODE     ---       #642
      00FF5E8FH   LINE      CODE     ---       #643
      00FF5E91H   LINE      CODE     ---       #644
      00FF5E95H   LINE      CODE     ---       #645
      00FF5E97H   LINE      CODE     ---       #646
      00FF5E9BH   LINE      CODE     ---       #647
      00FF5E9DH   LINE      CODE     ---       #648
      00FF5EA1H   LINE      CODE     ---       #649
      00FF5EA3H   LINE      CODE     ---       #650
      00FF5EAAH   LINE      CODE     ---       #651
      00FF5EACH   LINE      CODE     ---       #652
      00FF5EB3H   LINE      CODE     ---       #653
      00FF5EB3H   LINE      CODE     ---       #654
      00FF5EB3H   LINE      CODE     ---       #655
      00FF5EB9H   LINE      CODE     ---       #657
      00FF5EBEH   LINE      CODE     ---       #658
      00FF5EC5H   LINE      CODE     ---       #659
      00FF5ECEH   LINE      CODE     ---       #660
      00FF5ED7H   LINE      CODE     ---       #661
      00FF5EDDH   LINE      CODE     ---       #662
      00FF5EDDH   LINE      CODE     ---       #663
      ---         BLOCKEND  ---      ---       LVL=0

      00FF825FH   BLOCK     CODE     ---       LVL=0
      0000010BH   SYMBOL    EDATA    BYTE      i
      00FF825FH   LINE      CODE     ---       #665
      00FF825FH   LINE      CODE     ---       #666
      00FF825FH   LINE      CODE     ---       #669
      00FF8262H   LINE      CODE     ---       #670
      00FF8288H   LINE      CODE     ---       #671
      00FF828EH   LINE      CODE     ---       #673
      00FF8293H   LINE      CODE     ---       #674
      00FF8298H   LINE      CODE     ---       #675
      00FF82A1H   LINE      CODE     ---       #676
      00FF82AAH   LINE      CODE     ---       #677
      00FF82B0H   LINE      CODE     ---       #678
      00FF82B0H   LINE      CODE     ---       #679
      00FF82B6H   LINE      CODE     ---       #681
      00FF82BBH   LINE      CODE     ---       #682
      00FF82C2H   LINE      CODE     ---       #683
      00FF82CBH   LINE      CODE     ---       #684
      00FF82D4H   LINE      CODE     ---       #685
      00FF82DAH   LINE      CODE     ---       #686
      00FF82DAH   LINE      CODE     ---       #687
      00FF82F2H   LINE      CODE     ---       #689
      00FF831FH   LINE      CODE     ---       #690
      00FF834BH   LINE      CODE     ---       #691
      00FF8377H   LINE      CODE     ---       #692
      00FF83A5H   LINE      CODE     ---       #693
      00FF83A5H   LINE      CODE     ---       #694
      ---         BLOCKEND  ---      ---       LVL=0

      00FF61C0H   BLOCK     CODE     ---       LVL=0
      0000010CH   SYMBOL    EDATA    BYTE      i
      00FF61C0H   LINE      CODE     ---       #695
      00FF61C0H   LINE      CODE     ---       #696
      00FF61C0H   LINE      CODE     ---       #698
      00FF61C3H   LINE      CODE     ---       #699
      00FF61EBH   LINE      CODE     ---       #701
      00FF61F1H   LINE      CODE     ---       #703
      00FF61F6H   LINE      CODE     ---       #704
      00FF61FBH   LINE      CODE     ---       #705
L251 LINKER/LOCATER V4.66.93.0                                                        10/29/2024  08:37:11  PAGE 39


      00FF6204H   LINE      CODE     ---       #706
      00FF620DH   LINE      CODE     ---       #707
      00FF6213H   LINE      CODE     ---       #708
      00FF6213H   LINE      CODE     ---       #709
      00FF6219H   LINE      CODE     ---       #711
      00FF621EH   LINE      CODE     ---       #712
      00FF6225H   LINE      CODE     ---       #713
      00FF622EH   LINE      CODE     ---       #714
      00FF6237H   LINE      CODE     ---       #715
      00FF623DH   LINE      CODE     ---       #716
      00FF623DH   LINE      CODE     ---       #717
      00FF627FH   LINE      CODE     ---       #719
      00FF62A1H   LINE      CODE     ---       #720
      00FF62C3H   LINE      CODE     ---       #721
      00FF62E5H   LINE      CODE     ---       #722
      00FF6307H   LINE      CODE     ---       #723
      00FF6329H   LINE      CODE     ---       #724
      00FF634BH   LINE      CODE     ---       #725
      00FF636DH   LINE      CODE     ---       #726
      00FF638FH   LINE      CODE     ---       #727
      00FF63B1H   LINE      CODE     ---       #728
      00FF63D3H   LINE      CODE     ---       #729
      00FF63F5H   LINE      CODE     ---       #730
      00FF6416H   LINE      CODE     ---       #731
      00FF6437H   LINE      CODE     ---       #732
      00FF6458H   LINE      CODE     ---       #733
      00FF647BH   LINE      CODE     ---       #734
      00FF647BH   LINE      CODE     ---       #735
      ---         BLOCKEND  ---      ---       LVL=0

      00FF5EDEH   BLOCK     CODE     ---       LVL=0
      0000010DH   SYMBOL    EDATA    BYTE      i
      00FF5EDEH   LINE      CODE     ---       #736
      00FF5EDEH   LINE      CODE     ---       #737
      00FF5EDEH   LINE      CODE     ---       #739
      00FF5EE1H   LINE      CODE     ---       #740
      00FF5F09H   LINE      CODE     ---       #741
      00FF5F2FH   LINE      CODE     ---       #742
      00FF5F35H   LINE      CODE     ---       #744
      00FF5F3AH   LINE      CODE     ---       #745
      00FF5F3FH   LINE      CODE     ---       #746
      00FF5F48H   LINE      CODE     ---       #747
      00FF5F51H   LINE      CODE     ---       #748
      00FF5F57H   LINE      CODE     ---       #749
      00FF5F57H   LINE      CODE     ---       #750
      00FF5F5DH   LINE      CODE     ---       #752
      00FF5F62H   LINE      CODE     ---       #753
      00FF5F69H   LINE      CODE     ---       #754
      00FF5F72H   LINE      CODE     ---       #755
      00FF5F7BH   LINE      CODE     ---       #756
      00FF5F81H   LINE      CODE     ---       #757
      00FF5F81H   LINE      CODE     ---       #758
      00FF5FC3H   LINE      CODE     ---       #760
      00FF5FE5H   LINE      CODE     ---       #761
      00FF6007H   LINE      CODE     ---       #762
      00FF6029H   LINE      CODE     ---       #763
      00FF604BH   LINE      CODE     ---       #764
      00FF606DH   LINE      CODE     ---       #765
      00FF608FH   LINE      CODE     ---       #766
      00FF60B1H   LINE      CODE     ---       #767
      00FF60D3H   LINE      CODE     ---       #768
      00FF60F5H   LINE      CODE     ---       #769
      00FF6117H   LINE      CODE     ---       #770
      00FF6139H   LINE      CODE     ---       #771
      00FF615AH   LINE      CODE     ---       #772
L251 LINKER/LOCATER V4.66.93.0                                                        10/29/2024  08:37:11  PAGE 40


      00FF617BH   LINE      CODE     ---       #773
      00FF619CH   LINE      CODE     ---       #774
      00FF61BFH   LINE      CODE     ---       #775
      00FF61BFH   LINE      CODE     ---       #776
      ---         BLOCKEND  ---      ---       LVL=0

      00FF9CC6H   BLOCK     CODE     ---       LVL=0
      00FF9CC6H   LINE      CODE     ---       #777
      00FF9CC6H   LINE      CODE     ---       #780
      ---         BLOCKEND  ---      ---       LVL=0

      00FF9CC7H   BLOCK     CODE     ---       LVL=0
      00FF9CC7H   LINE      CODE     ---       #782
      00FF9CC7H   LINE      CODE     ---       #784
      ---         BLOCKEND  ---      ---       LVL=0

      00FF7A4AH   BLOCK     CODE     ---       LVL=0
      00FF7A4AH   LINE      CODE     ---       #786
      00FF7A4AH   LINE      CODE     ---       #790
      00FF7A5BH   LINE      CODE     ---       #792
      00FF7A5BH   LINE      CODE     ---       #793
      00FF7A62H   LINE      CODE     ---       #795
      00FF7A75H   LINE      CODE     ---       #796
      00FF7A7AH   LINE      CODE     ---       #797
      00FF7A80H   LINE      CODE     ---       #798
      00FF7A80H   LINE      CODE     ---       #799
      00FF7AA4H   LINE      CODE     ---       #800
      00FF7AC8H   LINE      CODE     ---       #804
      00FF7AF5H   LINE      CODE     ---       #805
      00FF7B26H   LINE      CODE     ---       #810
      00FF7B56H   LINE      CODE     ---       #811
      00FF7B86H   LINE      CODE     ---       #812
      00FF7B89H   LINE      CODE     ---       #813
      00FF7B89H   LINE      CODE     ---       #814
      00FF7B89H   LINE      CODE     ---       #815
      00FF7B90H   LINE      CODE     ---       #817
      00FF7BA3H   LINE      CODE     ---       #818
      00FF7BA9H   LINE      CODE     ---       #819
      00FF7BAEH   LINE      CODE     ---       #820
      00FF7BAEH   LINE      CODE     ---       #823
      00FF7BDDH   LINE      CODE     ---       #828
      00FF7BFBH   LINE      CODE     ---       #829
      00FF7BFBH   LINE      CODE     ---       #834
      00FF7BFBH   LINE      CODE     ---       #836
      ---         BLOCKEND  ---      ---       LVL=0

      00FF9A4FH   BLOCK     CODE     ---       LVL=0
      00FF9A4FH   LINE      CODE     ---       #837
      00FF9A4FH   LINE      CODE     ---       #839
      00FF9A7AH   LINE      CODE     ---       #840
      ---         BLOCKEND  ---      ---       LVL=0

      00FF6B74H   BLOCK     CODE     ---       LVL=0
      0000010EH   SYMBOL    EDATA    BYTE      flag_Key_set_long
      00FF6B74H   LINE      CODE     ---       #841
      00FF6B74H   LINE      CODE     ---       #842
      00FF6B74H   LINE      CODE     ---       #844
      00FF6B87H   LINE      CODE     ---       #846
      00FF6B8AH   LINE      CODE     ---       #847
      00FF6B8FH   LINE      CODE     ---       #848
      00FF6BA0H   LINE      CODE     ---       #849
      00FF6BACH   LINE      CODE     ---       #850
      00FF6BBFH   LINE      CODE     ---       #851
      00FF6BC5H   LINE      CODE     ---       #853
      00FF6BCEH   LINE      CODE     ---       #854
L251 LINKER/LOCATER V4.66.93.0                                                        10/29/2024  08:37:11  PAGE 41


      00FF6BD7H   LINE      CODE     ---       #855
      00FF6BDDH   LINE      CODE     ---       #856
      00FF6BDDH   LINE      CODE     ---       #857
      00FF6BDDH   LINE      CODE     ---       #858
      00FF6BF0H   LINE      CODE     ---       #860
      00FF6BF3H   LINE      CODE     ---       #861
      00FF6BFAH   LINE      CODE     ---       #862
      00FF6C06H   LINE      CODE     ---       #863
      00FF6C19H   LINE      CODE     ---       #864
      00FF6C2AH   LINE      CODE     ---       #865
      00FF6C30H   LINE      CODE     ---       #867
      00FF6C39H   LINE      CODE     ---       #868
      00FF6C42H   LINE      CODE     ---       #869
      00FF6C48H   LINE      CODE     ---       #870
      00FF6C48H   LINE      CODE     ---       #871
      00FF6C48H   LINE      CODE     ---       #872
      00FF6C50H   LINE      CODE     ---       #874
      00FF6C56H   LINE      CODE     ---       #875
      00FF6C5AH   LINE      CODE     ---       #876
      00FF6C5AH   LINE      CODE     ---       #877
      00FF6C7EH   LINE      CODE     ---       #879
      00FF6C81H   LINE      CODE     ---       #880
      00FF6C88H   LINE      CODE     ---       #881
      00FF6C99H   LINE      CODE     ---       #882
      00FF6CACH   LINE      CODE     ---       #884
      00FF6CACH   LINE      CODE     ---       #885
      00FF6CACH   LINE      CODE     ---       #892
      00FF6CACH   LINE      CODE     ---       #893
      00FF6CAFH   LINE      CODE     ---       #895
      00FF6CB5H   LINE      CODE     ---       #896
      00FF6CBAH   LINE      CODE     ---       #897
      00FF6CBAH   LINE      CODE     ---       #898
      00FF6CC0H   LINE      CODE     ---       #900
      00FF6CC5H   LINE      CODE     ---       #901
      00FF6CCCH   LINE      CODE     ---       #902
      00FF6CDDH   LINE      CODE     ---       #903
      00FF6CE3H   LINE      CODE     ---       #904
      00FF6CE6H   LINE      CODE     ---       #905
      00FF6CF9H   LINE      CODE     ---       #906
      00FF6CFFH   LINE      CODE     ---       #907
      00FF6D03H   LINE      CODE     ---       #909
      00FF6D03H   LINE      CODE     ---       #910
      00FF6D16H   LINE      CODE     ---       #912
      00FF6D22H   LINE      CODE     ---       #913
      00FF6D35H   LINE      CODE     ---       #914
      00FF6D43H   LINE      CODE     ---       #916
      00FF6D56H   LINE      CODE     ---       #917
      00FF6D5CH   LINE      CODE     ---       #918
      00FF6D64H   LINE      CODE     ---       #919
      00FF6D64H   LINE      CODE     ---       #920
      00FF6D6FH   LINE      CODE     ---       #922
      00FF6D80H   LINE      CODE     ---       #923
      00FF6D82H   LINE      CODE     ---       #924
      00FF6D8AH   LINE      CODE     ---       #925
      ---         BLOCKEND  ---      ---       LVL=0

      ---         MODULE    ---      ---       WAVE
      00FF7DA4H   PUBLIC    CODE     ---       wave
      00010000H   PUBLIC    XDATA    ---       wavebuf_1
      00000020H.5 PUBLIC    BIT      BIT       ?wave?BIT
      000000D0H   SFRSYM    DATA     BYTE      PSW
      0000009DH   SFRSYM    DATA     BYTE      IRCBAND
      00000097H   SFRSYM    DATA     BYTE      AUXR2
      000000EFH   SFRSYM    DATA     BYTE      AUXINTIF
      000000FDH   SFRSYM    DATA     BYTE      S4CON
L251 LINKER/LOCATER V4.66.93.0                                                        10/29/2024  08:37:11  PAGE 42


      000000ACH   SFRSYM    DATA     BYTE      S3CON
      0000009AH   SFRSYM    DATA     BYTE      S2CON
      000000B7H   SFRSYM    DATA     BYTE      IPH
      000000CDH   SFRSYM    DATA     BYTE      SPSTAT
      000000DDH   SFRSYM    DATA     BYTE      T4T3M
      000000C1H   SFRSYM    DATA     BYTE      WDT_CONTR
      000000DFH   SFRSYM    DATA     BYTE      IP3
      000000F4H   SFRSYM    DATA     BYTE      USBCON
      000000B5H   SFRSYM    DATA     BYTE      IP2
      000000FFH   SFRSYM    DATA     BYTE      RSTCFG
      000000C7H   SFRSYM    DATA     BYTE      IAP_CONTR
      000000F9H   SFRSYM    DATA     BYTE      LINICR
      0000008EH   SFRSYM    DATA     BYTE      AUXR
      000000AFH   SFRSYM    DATA     BYTE      IE2
      00000088H   SFRSYM    DATA     BYTE      TCON
      00000089H   SFRSYM    DATA     BYTE      TMOD
      00000098H   SFRSYM    DATA     BYTE      SCON
      000000F1H   SFRSYM    DATA     BYTE      CANICR
      00000087H   SFRSYM    DATA     BYTE      PCON
      000000BCH   SFRSYM    DATA     BYTE      ADC_CONTR
      000000E7H   SFRSYM    DATA     BYTE      CMPCR2
      000000E6H   SFRSYM    DATA     BYTE      CMPCR1
      000000DEH   SFRSYM    DATA     BYTE      ADCCFG
      000000B8H   SFRSYM    DATA     BYTE      IP
      0000008FH   SFRSYM    DATA     BYTE      INTCLKO
      000000EEH   SFRSYM    DATA     BYTE      IP3H
      000000B6H   SFRSYM    DATA     BYTE      IP2H
      000000A8H   SFRSYM    DATA     BYTE      IE
      000000BBH   SFRSYM    DATA     BYTE      P_SW3
      000000BAH   SFRSYM    DATA     BYTE      P_SW2
      000000A2H   SFRSYM    DATA     BYTE      P_SW1
      000000CEH   SFRSYM    DATA     BYTE      SPCTL
      000000F8H   SFRSYM    DATA     BYTE      P7
      000000E8H   SFRSYM    DATA     BYTE      P6
      000000C8H   SFRSYM    DATA     BYTE      P5
      000000C0H   SFRSYM    DATA     BYTE      P4
      000000B0H   SFRSYM    DATA     BYTE      P3
      000000A0H   SFRSYM    DATA     BYTE      P2
      00000090H   SFRSYM    DATA     BYTE      P1
      00000080H   SFRSYM    DATA     BYTE      P0

      00FF7DA4H   BLOCK     CODE     ---       LVL=0
      WR14        REGSYM    ---      INT       wavedata_1
      00000020H.5 SYMBOL    BIT      BIT       direction
      00FF7DAAH   BLOCK     CODE     NEAR LAB  LVL=1
      0000029DH   SYMBOL    EDATA    BYTE      i
      R13         REGSYM    ---      BYTE      Xtime
      ---         BLOCKEND  ---      ---       LVL=1
      00FF7DA4H   LINE      CODE     ---       #5
      00FF7DAAH   LINE      CODE     ---       #6
      00FF7DAAH   LINE      CODE     ---       #27
      00FF7DADH   LINE      CODE     ---       #29
      00FF7DF8H   LINE      CODE     ---       #31
      00FF7DFFH   LINE      CODE     ---       #32
      00FF7E2CH   LINE      CODE     ---       #33
      00FF7E32H   LINE      CODE     ---       #35
      00FF7E35H   LINE      CODE     ---       #37
      00FF7E56H   LINE      CODE     ---       #38
      00FF7E5DH   LINE      CODE     ---       #39
      00FF7E63H   LINE      CODE     ---       #41
      00FF7E66H   LINE      CODE     ---       #43
      00FF7EB3H   LINE      CODE     ---       #45
      00FF7EBAH   LINE      CODE     ---       #46
      00FF7EBCH   LINE      CODE     ---       #49
      00FF7EBFH   LINE      CODE     ---       #51
L251 LINKER/LOCATER V4.66.93.0                                                        10/29/2024  08:37:11  PAGE 43


      00FF7EE0H   LINE      CODE     ---       #52
      00FF7EE7H   LINE      CODE     ---       #53
      00FF7EEDH   LINE      CODE     ---       #54
      00FF7EF0H   LINE      CODE     ---       #56
      00FF7F2EH   LINE      CODE     ---       #57
      00FF7F35H   LINE      CODE     ---       #58
      00FF7F35H   LINE      CODE     ---       #62
      ---         BLOCKEND  ---      ---       LVL=0

      ---         MODULE    ---      ---       ALARM
      00FF94A7H   PUBLIC    CODE     ---       set_alarm_value
      00FF9809H   PUBLIC    CODE     ---       set_alarm_state
      00FF984FH   PUBLIC    CODE     ---       handleAlarm
      00FF8F28H   PUBLIC    CODE     ---       alarm_update
      0000010FH   PUBLIC    EDATA    ---       alarmv
      0000011FH   PUBLIC    EDATA    ---       alarma_table
      0000012FH   PUBLIC    EDATA    ---       alarma
      0000013FH   PUBLIC    EDATA    ---       alarmv_table
      000000D0H   SFRSYM    DATA     BYTE      PSW
      0000009DH   SFRSYM    DATA     BYTE      IRCBAND
      00000097H   SFRSYM    DATA     BYTE      AUXR2
      000000EFH   SFRSYM    DATA     BYTE      AUXINTIF
      000000FDH   SFRSYM    DATA     BYTE      S4CON
      000000ACH   SFRSYM    DATA     BYTE      S3CON
      0000009AH   SFRSYM    DATA     BYTE      S2CON
      000000B7H   SFRSYM    DATA     BYTE      IPH
      000000CDH   SFRSYM    DATA     BYTE      SPSTAT
      000000DDH   SFRSYM    DATA     BYTE      T4T3M
      000000C1H   SFRSYM    DATA     BYTE      WDT_CONTR
      000000DFH   SFRSYM    DATA     BYTE      IP3
      000000F4H   SFRSYM    DATA     BYTE      USBCON
      000000B5H   SFRSYM    DATA     BYTE      IP2
      000000FFH   SFRSYM    DATA     BYTE      RSTCFG
      000000C7H   SFRSYM    DATA     BYTE      IAP_CONTR
      000000F9H   SFRSYM    DATA     BYTE      LINICR
      0000008EH   SFRSYM    DATA     BYTE      AUXR
      000000AFH   SFRSYM    DATA     BYTE      IE2
      00000088H   SFRSYM    DATA     BYTE      TCON
      00000089H   SFRSYM    DATA     BYTE      TMOD
      00000098H   SFRSYM    DATA     BYTE      SCON
      000000F1H   SFRSYM    DATA     BYTE      CANICR
      00000087H   SFRSYM    DATA     BYTE      PCON
      000000BCH   SFRSYM    DATA     BYTE      ADC_CONTR
      000000E7H   SFRSYM    DATA     BYTE      CMPCR2
      000000E6H   SFRSYM    DATA     BYTE      CMPCR1
      000000DEH   SFRSYM    DATA     BYTE      ADCCFG
      000000B8H   SFRSYM    DATA     BYTE      IP
      0000008FH   SFRSYM    DATA     BYTE      INTCLKO
      000000EEH   SFRSYM    DATA     BYTE      IP3H
      000000B6H   SFRSYM    DATA     BYTE      IP2H
      000000A8H   SFRSYM    DATA     BYTE      IE
      000000BBH   SFRSYM    DATA     BYTE      P_SW3
      000000BAH   SFRSYM    DATA     BYTE      P_SW2
      000000A2H   SFRSYM    DATA     BYTE      P_SW1
      000000CEH   SFRSYM    DATA     BYTE      SPCTL
      000000F8H   SFRSYM    DATA     BYTE      P7
      000000E8H   SFRSYM    DATA     BYTE      P6
      000000C8H   SFRSYM    DATA     BYTE      P5
      000000C0H   SFRSYM    DATA     BYTE      P4
      000000B0H   SFRSYM    DATA     BYTE      P3
      000000A0H   SFRSYM    DATA     BYTE      P2
      00000090H   SFRSYM    DATA     BYTE      P1
      00000080H   SFRSYM    DATA     BYTE      P0

      00FF94A7H   BLOCK     CODE     ---       LVL=0
L251 LINKER/LOCATER V4.66.93.0                                                        10/29/2024  08:37:11  PAGE 44


      REG=3       REGSYM    ---      ---       alarm_value
      00FF94A7H   LINE      CODE     ---       #10
      00FF94ABH   LINE      CODE     ---       #11
      00FF94B1H   LINE      CODE     ---       #12
      00FF94B4H   LINE      CODE     ---       #13
      00FF94B9H   LINE      CODE     ---       #14
      00FF94C1H   LINE      CODE     ---       #15
      00FF94C1H   LINE      CODE     ---       #16
      00FF94C7H   LINE      CODE     ---       #17
      00FF94CAH   LINE      CODE     ---       #18
      00FF94D4H   LINE      CODE     ---       #19
      00FF94D4H   LINE      CODE     ---       #20
      00FF94DAH   LINE      CODE     ---       #21
      00FF94DDH   LINE      CODE     ---       #22
      00FF94E4H   LINE      CODE     ---       #24
      00FF94ECH   LINE      CODE     ---       #25
      00FF94ECH   LINE      CODE     ---       #26
      00FF94F2H   LINE      CODE     ---       #27
      00FF94F5H   LINE      CODE     ---       #29
      00FF94FFH   LINE      CODE     ---       #30
      ---         BLOCKEND  ---      ---       LVL=0

      00FF9809H   BLOCK     CODE     ---       LVL=0
      REG=3       REGSYM    ---      ---       alarm_state
      00FF9809H   LINE      CODE     ---       #32
      00FF980DH   LINE      CODE     ---       #35
      00FF9813H   LINE      CODE     ---       #36
      00FF9816H   LINE      CODE     ---       #37
      00FF981BH   LINE      CODE     ---       #38
      00FF9822H   LINE      CODE     ---       #39
      00FF982AH   LINE      CODE     ---       #40
      00FF982EH   LINE      CODE     ---       #41
      00FF982EH   LINE      CODE     ---       #43
      00FF9834H   LINE      CODE     ---       #44
      00FF9837H   LINE      CODE     ---       #45
      00FF983EH   LINE      CODE     ---       #46
      00FF9845H   LINE      CODE     ---       #47
      00FF9847H   LINE      CODE     ---       #48
      00FF984CH   LINE      CODE     ---       #49
      00FF984CH   LINE      CODE     ---       #51
      ---         BLOCKEND  ---      ---       LVL=0

      00FF984FH   BLOCK     CODE     ---       LVL=0
      0000029BH   SYMBOL    EDATA    BYTE      alarmState
      0000029CH   SYMBOL    EDATA    BYTE      condition
      REG=3       REGSYM    ---      ---       tempState
      R6          REGSYM    ---      BYTE      alarmType
      00FF984FH   LINE      CODE     ---       #52
      00FF985BH   LINE      CODE     ---       #53
      00FF9868H   LINE      CODE     ---       #54
      00FF986CH   LINE      CODE     ---       #55
      00FF9871H   LINE      CODE     ---       #56
      00FF9871H   LINE      CODE     ---       #57
      00FF9882H   LINE      CODE     ---       #58
      00FF9887H   LINE      CODE     ---       #59
      00FF988AH   LINE      CODE     ---       #60
      ---         BLOCKEND  ---      ---       LVL=0

      00FF8F28H   BLOCK     CODE     ---       LVL=0
      0000014FH   SYMBOL    EDATA    BYTE      tempstate_in
      00000150H   SYMBOL    EDATA    BYTE      tempstate_out
      00000151H   SYMBOL    EDATA    BYTE      tempstate_h
      00000152H   SYMBOL    EDATA    BYTE      tempstate_l
      00FF8F28H   LINE      CODE     ---       #62
      00FF8F28H   LINE      CODE     ---       #63
L251 LINKER/LOCATER V4.66.93.0                                                        10/29/2024  08:37:11  PAGE 45


      00FF8F28H   LINE      CODE     ---       #65
      00FF8F47H   LINE      CODE     ---       #66
      00FF8F66H   LINE      CODE     ---       #67
      00FF8F8FH   LINE      CODE     ---       #68
      ---         BLOCKEND  ---      ---       LVL=0

      ---         MODULE    ---      ---       FILTERING
      000000D0H   SFRSYM    DATA     BYTE      PSW
      0000009DH   SFRSYM    DATA     BYTE      IRCBAND
      00000097H   SFRSYM    DATA     BYTE      AUXR2
      000000EFH   SFRSYM    DATA     BYTE      AUXINTIF
      000000FDH   SFRSYM    DATA     BYTE      S4CON
      000000ACH   SFRSYM    DATA     BYTE      S3CON
      0000009AH   SFRSYM    DATA     BYTE      S2CON
      000000B7H   SFRSYM    DATA     BYTE      IPH
      000000CDH   SFRSYM    DATA     BYTE      SPSTAT
      000000DDH   SFRSYM    DATA     BYTE      T4T3M
      000000C1H   SFRSYM    DATA     BYTE      WDT_CONTR
      000000DFH   SFRSYM    DATA     BYTE      IP3
      000000F4H   SFRSYM    DATA     BYTE      USBCON
      000000B5H   SFRSYM    DATA     BYTE      IP2
      000000FFH   SFRSYM    DATA     BYTE      RSTCFG
      000000C7H   SFRSYM    DATA     BYTE      IAP_CONTR
      000000F9H   SFRSYM    DATA     BYTE      LINICR
      0000008EH   SFRSYM    DATA     BYTE      AUXR
      000000AFH   SFRSYM    DATA     BYTE      IE2
      00000088H   SFRSYM    DATA     BYTE      TCON
      00000089H   SFRSYM    DATA     BYTE      TMOD
      00000098H   SFRSYM    DATA     BYTE      SCON
      000000F1H   SFRSYM    DATA     BYTE      CANICR
      00000087H   SFRSYM    DATA     BYTE      PCON
      000000BCH   SFRSYM    DATA     BYTE      ADC_CONTR
      000000E7H   SFRSYM    DATA     BYTE      CMPCR2
      000000E6H   SFRSYM    DATA     BYTE      CMPCR1
      000000DEH   SFRSYM    DATA     BYTE      ADCCFG
      000000B8H   SFRSYM    DATA     BYTE      IP
      0000008FH   SFRSYM    DATA     BYTE      INTCLKO
      000000EEH   SFRSYM    DATA     BYTE      IP3H
      000000B6H   SFRSYM    DATA     BYTE      IP2H
      000000A8H   SFRSYM    DATA     BYTE      IE
      000000BBH   SFRSYM    DATA     BYTE      P_SW3
      000000BAH   SFRSYM    DATA     BYTE      P_SW2
      000000A2H   SFRSYM    DATA     BYTE      P_SW1
      000000CEH   SFRSYM    DATA     BYTE      SPCTL
      000000F8H   SFRSYM    DATA     BYTE      P7
      000000E8H   SFRSYM    DATA     BYTE      P6
      000000C8H   SFRSYM    DATA     BYTE      P5
      000000C0H   SFRSYM    DATA     BYTE      P4
      000000B0H   SFRSYM    DATA     BYTE      P3
      000000A0H   SFRSYM    DATA     BYTE      P2
      00000090H   SFRSYM    DATA     BYTE      P1
      00000080H   SFRSYM    DATA     BYTE      P0

      ---         MODULE    ---      ---       lcd_init
      00FF98CAH   PUBLIC    CODE     ---       LCD_Address_Set
      00FF0003H   PUBLIC    CODE     ---       LCD_WR_DATA8
      00FF0006H   PUBLIC    CODE     ---       LCD_WR_REG
      00FF9BC7H   PUBLIC    CODE     ---       LCD_Write_Data
      00FF80CEH   PUBLIC    CODE     ---       LCD_Init
      00FF9BF7H   PUBLIC    CODE     ---       delay_ms
      00FF9C73H   PUBLIC    CODE     ---       LCD_WR_DATA
      00FF9BDFH   PUBLIC    CODE     ---       LCD_Write_Command
      000000CFH   SFRSYM    DATA     BYTE      SPDAT
      000000D0H   SFRSYM    DATA     BYTE      PSW
      0000009DH   SFRSYM    DATA     BYTE      IRCBAND
L251 LINKER/LOCATER V4.66.93.0                                                        10/29/2024  08:37:11  PAGE 46


      00000097H   SFRSYM    DATA     BYTE      AUXR2
      000000EFH   SFRSYM    DATA     BYTE      AUXINTIF
      000000FDH   SFRSYM    DATA     BYTE      S4CON
      000000ACH   SFRSYM    DATA     BYTE      S3CON
      0000009AH   SFRSYM    DATA     BYTE      S2CON
      000000B7H   SFRSYM    DATA     BYTE      IPH
      000000CDH   SFRSYM    DATA     BYTE      SPSTAT
      000000DDH   SFRSYM    DATA     BYTE      T4T3M
      000000C1H   SFRSYM    DATA     BYTE      WDT_CONTR
      000000DFH   SFRSYM    DATA     BYTE      IP3
      000000F4H   SFRSYM    DATA     BYTE      USBCON
      000000B5H   SFRSYM    DATA     BYTE      IP2
      000000FFH   SFRSYM    DATA     BYTE      RSTCFG
      000000C7H   SFRSYM    DATA     BYTE      IAP_CONTR
      000000F9H   SFRSYM    DATA     BYTE      LINICR
      0000008EH   SFRSYM    DATA     BYTE      AUXR
      000000AFH   SFRSYM    DATA     BYTE      IE2
      000000CDH.6 SFRSYM    DATA     BIT       WCOL
      00000088H   SFRSYM    DATA     BYTE      TCON
      00000089H   SFRSYM    DATA     BYTE      TMOD
      00000098H   SFRSYM    DATA     BYTE      SCON
      000000CDH.7 SFRSYM    DATA     BIT       SPIF
      000000F1H   SFRSYM    DATA     BYTE      CANICR
      00000087H   SFRSYM    DATA     BYTE      PCON
      000000BCH   SFRSYM    DATA     BYTE      ADC_CONTR
      000000E7H   SFRSYM    DATA     BYTE      CMPCR2
      000000E6H   SFRSYM    DATA     BYTE      CMPCR1
      00000090H.2 SFRSYM    DATA     BIT       OLED_CS
      000000DEH   SFRSYM    DATA     BYTE      ADCCFG
      000000B8H   SFRSYM    DATA     BYTE      IP
      0000008FH   SFRSYM    DATA     BYTE      INTCLKO
      000000EEH   SFRSYM    DATA     BYTE      IP3H
      000000B6H   SFRSYM    DATA     BYTE      IP2H
      000000A8H   SFRSYM    DATA     BYTE      IE
      000000BBH   SFRSYM    DATA     BYTE      P_SW3
      000000B0H.3 SFRSYM    DATA     BIT       LCD_BLK
      000000BAH   SFRSYM    DATA     BYTE      P_SW2
      00000090H.6 SFRSYM    DATA     BIT       OLED_DC
      000000A2H   SFRSYM    DATA     BYTE      P_SW1
      000000CEH   SFRSYM    DATA     BYTE      SPCTL
      000000F8H   SFRSYM    DATA     BYTE      P7
      000000E8H   SFRSYM    DATA     BYTE      P6
      000000C8H   SFRSYM    DATA     BYTE      P5
      000000C0H   SFRSYM    DATA     BYTE      P4
      000000B0H   SFRSYM    DATA     BYTE      P3
      000000A0H   SFRSYM    DATA     BYTE      P2
      00000090H   SFRSYM    DATA     BYTE      P1
      00000080H   SFRSYM    DATA     BYTE      P0
      00000090H.4 SFRSYM    DATA     BIT       OLED_RST

      00FF9BF7H   BLOCK     CODE     ---       LVL=0
      WR2         REGSYM    ---      WORD      ms
      00FF9BF9H   BLOCK     CODE     NEAR LAB  LVL=1
      WR0         REGSYM    ---      WORD      a
      ---         BLOCKEND  ---      ---       LVL=1
      00FF9BF7H   LINE      CODE     ---       #4
      00FF9BF9H   LINE      CODE     ---       #5
      00FF9BF9H   LINE      CODE     ---       #7
      00FF9BFBH   LINE      CODE     ---       #9
      00FF9BFFH   LINE      CODE     ---       #10
      00FF9C07H   LINE      CODE     ---       #11
      00FF9C09H   LINE      CODE     ---       #12
      00FF9C0DH   LINE      CODE     ---       #13
      ---         BLOCKEND  ---      ---       LVL=0

L251 LINKER/LOCATER V4.66.93.0                                                        10/29/2024  08:37:11  PAGE 47


      00FF9BDFH   BLOCK     CODE     ---       LVL=0
      R11         REGSYM    ---      BYTE      dat
      00FF9BDFH   LINE      CODE     ---       #16
      00FF9BDFH   LINE      CODE     ---       #18
      00FF9BE1H   LINE      CODE     ---       #19
      00FF9BE2H   LINE      CODE     ---       #20
      00FF9BE4H   LINE      CODE     ---       #21
      00FF9BE7H   LINE      CODE     ---       #22
      00FF9BEEH   LINE      CODE     ---       #23
      00FF9BF1H   LINE      CODE     ---       #24
      00FF9BF4H   LINE      CODE     ---       #25
      00FF9BF6H   LINE      CODE     ---       #26
      ---         BLOCKEND  ---      ---       LVL=0

      00FF9BC7H   BLOCK     CODE     ---       LVL=0
      R11         REGSYM    ---      BYTE      dat
      00FF9BC7H   LINE      CODE     ---       #30
      00FF9BC7H   LINE      CODE     ---       #32
      00FF9BC9H   LINE      CODE     ---       #33
      00FF9BCAH   LINE      CODE     ---       #34
      00FF9BCCH   LINE      CODE     ---       #35
      00FF9BCFH   LINE      CODE     ---       #36
      00FF9BD6H   LINE      CODE     ---       #37
      00FF9BD9H   LINE      CODE     ---       #38
      00FF9BDCH   LINE      CODE     ---       #39
      00FF9BDEH   LINE      CODE     ---       #40
      ---         BLOCKEND  ---      ---       LVL=0

      00FF0003H   BLOCK     CODE     ---       LVL=0
      R7          REGSYM    ---      BYTE      dat
      00FF0003H   LINE      CODE     ---       #74
      00FF0003H   LINE      CODE     ---       #76
      ---         BLOCKEND  ---      ---       LVL=0

      00FF9C73H   BLOCK     CODE     ---       LVL=0
      WR14        REGSYM    ---      WORD      dat
      00FF9C73H   LINE      CODE     ---       #85
      00FF9C77H   LINE      CODE     ---       #87
      00FF9C7CH   LINE      CODE     ---       #88
      00FF9C81H   LINE      CODE     ---       #89
      ---         BLOCKEND  ---      ---       LVL=0

      00FF0006H   BLOCK     CODE     ---       LVL=0
      R7          REGSYM    ---      BYTE      dat
      00FF0006H   LINE      CODE     ---       #97
      00FF0006H   LINE      CODE     ---       #102
      ---         BLOCKEND  ---      ---       LVL=0

      00FF98CAH   BLOCK     CODE     ---       LVL=0
      0000019AH   SYMBOL    EDATA    WORD      x1
      0000019CH   SYMBOL    EDATA    WORD      y1
      WR12        REGSYM    ---      WORD      x2
      WR14        REGSYM    ---      WORD      y2
      00FF98CAH   LINE      CODE     ---       #112
      00FF98D4H   LINE      CODE     ---       #114
      00FF98D4H   LINE      CODE     ---       #116
      00FF98D4H   LINE      CODE     ---       #124
      00FF98D4H   LINE      CODE     ---       #126
      00FF98D4H   LINE      CODE     ---       #136
      00FF98D9H   LINE      CODE     ---       #137
      00FF98E0H   LINE      CODE     ---       #138
      00FF98E5H   LINE      CODE     ---       #139
      00FF98EAH   LINE      CODE     ---       #140
      00FF98F5H   LINE      CODE     ---       #141
      00FF98FEH   LINE      CODE     ---       #142
L251 LINKER/LOCATER V4.66.93.0                                                        10/29/2024  08:37:11  PAGE 48


      00FF9903H   LINE      CODE     ---       #143
      00FF9903H   LINE      CODE     ---       #146
      00FF9903H   LINE      CODE     ---       #153
      00FF9903H   LINE      CODE     ---       #154
      ---         BLOCKEND  ---      ---       LVL=0

      00FF80CEH   BLOCK     CODE     ---       LVL=0
      00FF80CEH   LINE      CODE     ---       #156
      00FF80CEH   LINE      CODE     ---       #159
      00FF80D0H   LINE      CODE     ---       #160
      00FF80D7H   LINE      CODE     ---       #161
      00FF80D9H   LINE      CODE     ---       #162
      00FF80E0H   LINE      CODE     ---       #164
      00FF80E2H   LINE      CODE     ---       #165
      00FF80E9H   LINE      CODE     ---       #167
      00FF80EEH   LINE      CODE     ---       #168
      00FF80F5H   LINE      CODE     ---       #169
      00FF80FAH   LINE      CODE     ---       #170
      00FF80FFH   LINE      CODE     ---       #171
      00FF8104H   LINE      CODE     ---       #172
      00FF8109H   LINE      CODE     ---       #174
      00FF810EH   LINE      CODE     ---       #175
      00FF8113H   LINE      CODE     ---       #176
      00FF8118H   LINE      CODE     ---       #177
      00FF811DH   LINE      CODE     ---       #179
      00FF8122H   LINE      CODE     ---       #180
      00FF8127H   LINE      CODE     ---       #181
      00FF812CH   LINE      CODE     ---       #182
      00FF8131H   LINE      CODE     ---       #183
      00FF8136H   LINE      CODE     ---       #184
      00FF813BH   LINE      CODE     ---       #185
      00FF8140H   LINE      CODE     ---       #187
      00FF8145H   LINE      CODE     ---       #188
      00FF814AH   LINE      CODE     ---       #190
      00FF814FH   LINE      CODE     ---       #191
      00FF8154H   LINE      CODE     ---       #192
      00FF8159H   LINE      CODE     ---       #193
      00FF815EH   LINE      CODE     ---       #195
      00FF8163H   LINE      CODE     ---       #196
      00FF8168H   LINE      CODE     ---       #198
      00FF816DH   LINE      CODE     ---       #199
      00FF8172H   LINE      CODE     ---       #200
      00FF8176H   LINE      CODE     ---       #202
      00FF817BH   LINE      CODE     ---       #203
      00FF8180H   LINE      CODE     ---       #204
      00FF8185H   LINE      CODE     ---       #206
      00FF818AH   LINE      CODE     ---       #207
      00FF818FH   LINE      CODE     ---       #208
      00FF8194H   LINE      CODE     ---       #210
      00FF8199H   LINE      CODE     ---       #211
      00FF819EH   LINE      CODE     ---       #214
      00FF81A3H   LINE      CODE     ---       #215
      00FF81A3H   LINE      CODE     ---       #216
      00FF81A3H   LINE      CODE     ---       #217
      00FF81A8H   LINE      CODE     ---       #218
      00FF81A8H   LINE      CODE     ---       #220
      00FF81ADH   LINE      CODE     ---       #221
      00FF81B2H   LINE      CODE     ---       #223
      00FF81B7H   LINE      CODE     ---       #224
      00FF81BCH   LINE      CODE     ---       #225
      00FF81C1H   LINE      CODE     ---       #226
      00FF81C6H   LINE      CODE     ---       #227
      00FF81CBH   LINE      CODE     ---       #228
      00FF81D0H   LINE      CODE     ---       #229
      00FF81D5H   LINE      CODE     ---       #230
L251 LINKER/LOCATER V4.66.93.0                                                        10/29/2024  08:37:11  PAGE 49


      00FF81DAH   LINE      CODE     ---       #231
      00FF81DFH   LINE      CODE     ---       #232
      00FF81E4H   LINE      CODE     ---       #233
      00FF81E9H   LINE      CODE     ---       #234
      00FF81EEH   LINE      CODE     ---       #235
      00FF81F3H   LINE      CODE     ---       #236
      00FF81F7H   LINE      CODE     ---       #237
      00FF81FCH   LINE      CODE     ---       #238
      00FF8201H   LINE      CODE     ---       #239
      00FF8206H   LINE      CODE     ---       #241
      00FF820BH   LINE      CODE     ---       #242
      00FF8210H   LINE      CODE     ---       #243
      00FF8215H   LINE      CODE     ---       #244
      00FF821AH   LINE      CODE     ---       #245
      00FF821FH   LINE      CODE     ---       #246
      00FF8224H   LINE      CODE     ---       #247
      00FF8229H   LINE      CODE     ---       #248
      00FF822EH   LINE      CODE     ---       #249
      00FF8233H   LINE      CODE     ---       #250
      00FF8238H   LINE      CODE     ---       #251
      00FF823DH   LINE      CODE     ---       #252
      00FF8242H   LINE      CODE     ---       #253
      00FF8247H   LINE      CODE     ---       #254
      00FF824BH   LINE      CODE     ---       #255
      00FF8250H   LINE      CODE     ---       #256
      00FF8255H   LINE      CODE     ---       #257
      00FF825AH   LINE      CODE     ---       #258
      ---         BLOCKEND  ---      ---       LVL=0

      ---         MODULE    ---      ---       bsp_adc
      00FF9647H   PUBLIC    CODE     ---       filter
      00FF9CC8H   PUBLIC    CODE     ---       APP_AdcEnable
      00FF9AA1H   PUBLIC    CODE     ---       channel_GetAdcAverage
      00FF9A7BH   PUBLIC    CODE     ---       Get_ADC12bitResult_a
      00FF9C9FH   PUBLIC    CODE     ---       ADCx_Init
      00FF9CC9H   PUBLIC    CODE     ---       APP_AdcCalibrate
      00FF9942H   PUBLIC    CODE     ---       GetAdcAverage
      00FF9A21H   PUBLIC    CODE     ---       Get_ADC12bitResult
      000000D0H   SFRSYM    DATA     BYTE      PSW
      0000009DH   SFRSYM    DATA     BYTE      IRCBAND
      00000097H   SFRSYM    DATA     BYTE      AUXR2
      000000EFH   SFRSYM    DATA     BYTE      AUXINTIF
      000000FDH   SFRSYM    DATA     BYTE      S4CON
      000000ACH   SFRSYM    DATA     BYTE      S3CON
      0000009AH   SFRSYM    DATA     BYTE      S2CON
      000000B7H   SFRSYM    DATA     BYTE      IPH
      000000CDH   SFRSYM    DATA     BYTE      SPSTAT
      000000BEH   SFRSYM    DATA     BYTE      ADC_RESL
      000000DDH   SFRSYM    DATA     BYTE      T4T3M
      000000C1H   SFRSYM    DATA     BYTE      WDT_CONTR
      000000DFH   SFRSYM    DATA     BYTE      IP3
      000000F4H   SFRSYM    DATA     BYTE      USBCON
      000000B5H   SFRSYM    DATA     BYTE      IP2
      000000FFH   SFRSYM    DATA     BYTE      RSTCFG
      000000BCH.5 SFRSYM    DATA     BIT       ADC_FLAG
      000000C7H   SFRSYM    DATA     BYTE      IAP_CONTR
      000000F9H   SFRSYM    DATA     BYTE      LINICR
      0000008EH   SFRSYM    DATA     BYTE      AUXR
      000000AFH   SFRSYM    DATA     BYTE      IE2
      000000BCH.6 SFRSYM    DATA     BIT       ADC_START
      00000088H   SFRSYM    DATA     BYTE      TCON
      00000089H   SFRSYM    DATA     BYTE      TMOD
      00000098H   SFRSYM    DATA     BYTE      SCON
      000000F1H   SFRSYM    DATA     BYTE      CANICR
      00000087H   SFRSYM    DATA     BYTE      PCON
L251 LINKER/LOCATER V4.66.93.0                                                        10/29/2024  08:37:11  PAGE 50


      000000BCH   SFRSYM    DATA     BYTE      ADC_CONTR
      000000E7H   SFRSYM    DATA     BYTE      CMPCR2
      000000E6H   SFRSYM    DATA     BYTE      CMPCR1
      000000DEH   SFRSYM    DATA     BYTE      ADCCFG
      000000B8H   SFRSYM    DATA     BYTE      IP
      0000008FH   SFRSYM    DATA     BYTE      INTCLKO
      000000EEH   SFRSYM    DATA     BYTE      IP3H
      000000B6H   SFRSYM    DATA     BYTE      IP2H
      000000BDH   SFRSYM    DATA     BYTE      ADC_RES
      000000A8H   SFRSYM    DATA     BYTE      IE
      000000BBH   SFRSYM    DATA     BYTE      P_SW3
      000000BAH   SFRSYM    DATA     BYTE      P_SW2
      000000A2H   SFRSYM    DATA     BYTE      P_SW1
      000000CEH   SFRSYM    DATA     BYTE      SPCTL
      000000F8H   SFRSYM    DATA     BYTE      P7
      000000E8H   SFRSYM    DATA     BYTE      P6
      000000C8H   SFRSYM    DATA     BYTE      P5
      000000C0H   SFRSYM    DATA     BYTE      P4
      000000B0H   SFRSYM    DATA     BYTE      P3
      000000A0H   SFRSYM    DATA     BYTE      P2
      00000090H   SFRSYM    DATA     BYTE      P1
      00000080H   SFRSYM    DATA     BYTE      P0
      00FF9C39H   SYMBOL    CODE     ---       APP_AdcConfig

      00FF9C39H   BLOCK     CODE     ---       LVL=0
      00FF9C39H   LINE      CODE     ---       #13
      00FF9C39H   LINE      CODE     ---       #15
      00FF9C46H   LINE      CODE     ---       #16
      00FF9C49H   LINE      CODE     ---       #17
      00FF9C4CH   LINE      CODE     ---       #18
      ---         BLOCKEND  ---      ---       LVL=0

      00FF9CC9H   BLOCK     CODE     ---       LVL=0
      00FF9CC9H   LINE      CODE     ---       #24
      00FF9CC9H   LINE      CODE     ---       #27
      ---         BLOCKEND  ---      ---       LVL=0

      00FF9CC8H   BLOCK     CODE     ---       LVL=0
      00FF9CC8H   LINE      CODE     ---       #34
      00FF9CC8H   LINE      CODE     ---       #36
      ---         BLOCKEND  ---      ---       LVL=0

      00FF9C9FH   BLOCK     CODE     ---       LVL=0
      00FF9C9FH   LINE      CODE     ---       #43
      00FF9C9FH   LINE      CODE     ---       #45
      00FF9CA2H   LINE      CODE     ---       #46
      00FF9CAAH   LINE      CODE     ---       #48
      ---         BLOCKEND  ---      ---       LVL=0

      00FF9A7BH   BLOCK     CODE     ---       LVL=0
      00FF9A7BH   LINE      CODE     ---       #49
      00FF9A7BH   LINE      CODE     ---       #51
      00FF9A7EH   LINE      CODE     ---       #52
      00FF9A7FH   LINE      CODE     ---       #53
      00FF9A80H   LINE      CODE     ---       #54
      00FF9A81H   LINE      CODE     ---       #55
      00FF9A82H   LINE      CODE     ---       #56
      00FF9A83H   LINE      CODE     ---       #57
      00FF9A84H   LINE      CODE     ---       #58
      00FF9A85H   LINE      CODE     ---       #59
      00FF9A86H   LINE      CODE     ---       #60
      00FF9A87H   LINE      CODE     ---       #61
      00FF9A88H   LINE      CODE     ---       #62
      00FF9A89H   LINE      CODE     ---       #63
      00FF9A8AH   LINE      CODE     ---       #64
L251 LINKER/LOCATER V4.66.93.0                                                        10/29/2024  08:37:11  PAGE 51


      00FF9A91H   LINE      CODE     ---       #65
      00FF9A94H   LINE      CODE     ---       #66
      00FF9AA0H   LINE      CODE     ---       #67
      ---         BLOCKEND  ---      ---       LVL=0

      00FF9A21H   BLOCK     CODE     ---       LVL=0
      R10         REGSYM    ---      BYTE      channel
      00FF9A21H   LINE      CODE     ---       #68
      00FF9A23H   LINE      CODE     ---       #70
      00FF9A26H   LINE      CODE     ---       #71
      00FF9A29H   LINE      CODE     ---       #73
      00FF9A31H   LINE      CODE     ---       #74
      00FF9A34H   LINE      CODE     ---       #75
      00FF9A35H   LINE      CODE     ---       #76
      00FF9A36H   LINE      CODE     ---       #77
      00FF9A37H   LINE      CODE     ---       #78
      00FF9A38H   LINE      CODE     ---       #80
      00FF9A3FH   LINE      CODE     ---       #81
      00FF9A42H   LINE      CODE     ---       #82
      00FF9A4EH   LINE      CODE     ---       #83
      ---         BLOCKEND  ---      ---       LVL=0

      00FF9647H   BLOCK     CODE     ---       LVL=0
      00FF9649H   BLOCK     CODE     NEAR LAB  LVL=1
      00000183H   SYMBOL    EDATA    ---       value_buf
      WR14        REGSYM    ---      WORD      count
      WR4         REGSYM    ---      WORD      i
      WR6         REGSYM    ---      WORD      j
      WR2         REGSYM    ---      WORD      temp
      ---         BLOCKEND  ---      ---       LVL=1
      00FF9647H   LINE      CODE     ---       #85
      00FF9649H   LINE      CODE     ---       #86
      00FF9649H   LINE      CODE     ---       #89
      00FF964BH   LINE      CODE     ---       #91
      00FF9656H   LINE      CODE     ---       #92
      00FF965EH   LINE      CODE     ---       #93
      00FF9660H   LINE      CODE     ---       #95
      00FF9664H   LINE      CODE     ---       #97
      00FF9674H   LINE      CODE     ---       #99
      00FF9674H   LINE      CODE     ---       #100
      00FF9678H   LINE      CODE     ---       #101
      00FF967CH   LINE      CODE     ---       #102
      00FF9688H   LINE      CODE     ---       #104
      00FF9690H   LINE      CODE     ---       #105
      00FF9694H   LINE      CODE     ---       #107
      ---         BLOCKEND  ---      ---       LVL=0

      00FF9942H   BLOCK     CODE     ---       LVL=0
      WR14        REGSYM    ---      WORD      times
      00FF9946H   BLOCK     CODE     NEAR LAB  LVL=1
      0000017FH   SYMBOL    EDATA    DWORD     temp_val
      WR12        REGSYM    ---      WORD      t
      ---         BLOCKEND  ---      ---       LVL=1
      00FF9942H   LINE      CODE     ---       #108
      00FF9946H   LINE      CODE     ---       #109
      00FF9946H   LINE      CODE     ---       #110
      00FF994CH   LINE      CODE     ---       #112
      00FF9950H   LINE      CODE     ---       #123
      00FF9961H   LINE      CODE     ---       #124
      00FF9967H   LINE      CODE     ---       #125
      00FF9978H   LINE      CODE     ---       #128
      00FF9978H   LINE      CODE     ---       #130
      ---         BLOCKEND  ---      ---       LVL=0

      00FF9AA1H   BLOCK     CODE     ---       LVL=0
L251 LINKER/LOCATER V4.66.93.0                                                        10/29/2024  08:37:11  PAGE 52


      R10         REGSYM    ---      BYTE      channel
      WR6         REGSYM    ---      WORD      times
      00FF9AA1H   LINE      CODE     ---       #131
      00FF9AA3H   LINE      CODE     ---       #138
      00FF9AABH   LINE      CODE     ---       #139
      00FF9AACH   LINE      CODE     ---       #140
      00FF9AADH   LINE      CODE     ---       #141
      00FF9AAEH   LINE      CODE     ---       #142
      00FF9AAFH   LINE      CODE     ---       #143
      00FF9AB0H   LINE      CODE     ---       #144
      00FF9AB1H   LINE      CODE     ---       #145
      00FF9AB2H   LINE      CODE     ---       #146
      00FF9AB3H   LINE      CODE     ---       #147
      00FF9AB4H   LINE      CODE     ---       #148
      00FF9AB5H   LINE      CODE     ---       #149
      00FF9AB6H   LINE      CODE     ---       #150
      00FF9AB7H   LINE      CODE     ---       #151
      00FF9AB8H   LINE      CODE     ---       #152
      00FF9AB9H   LINE      CODE     ---       #153
      00FF9ABAH   LINE      CODE     ---       #154
      00FF9ABBH   LINE      CODE     ---       #155
      00FF9ABCH   LINE      CODE     ---       #156
      00FF9ABDH   LINE      CODE     ---       #157
      00FF9ABEH   LINE      CODE     ---       #158
      00FF9ABFH   LINE      CODE     ---       #159
      00FF9AC0H   LINE      CODE     ---       #160
      00FF9AC1H   LINE      CODE     ---       #161
      00FF9AC2H   LINE      CODE     ---       #162
      00FF9AC3H   LINE      CODE     ---       #163
      ---         BLOCKEND  ---      ---       LVL=0

      ---         MODULE    ---      ---       base_key
      00FF9AEBH   PUBLIC    CODE     ---       Key_value_init
      00FF9554H   PUBLIC    CODE     ---       key
      00FF93E9H   PUBLIC    CODE     ---       key_scan
      00FF9CCAH   PUBLIC    CODE     ---       Key_GPIO_Config
      0000022CH   PUBLIC    EDATA    ---       sys_key_return
      00000230H   PUBLIC    EDATA    ---       sys_key_down
      00000234H   PUBLIC    EDATA    ---       sys_key_set
      00000238H   PUBLIC    EDATA    ---       sys_key_up
      000000D0H   SFRSYM    DATA     BYTE      PSW
      0000009DH   SFRSYM    DATA     BYTE      IRCBAND
      00000097H   SFRSYM    DATA     BYTE      AUXR2
      000000B0H.6 SFRSYM    DATA     BIT       KEY_UP
      000000EFH   SFRSYM    DATA     BYTE      AUXINTIF
      000000FDH   SFRSYM    DATA     BYTE      S4CON
      000000ACH   SFRSYM    DATA     BYTE      S3CON
      0000009AH   SFRSYM    DATA     BYTE      S2CON
      000000B7H   SFRSYM    DATA     BYTE      IPH
      000000CDH   SFRSYM    DATA     BYTE      SPSTAT
      000000DDH   SFRSYM    DATA     BYTE      T4T3M
      000000C1H   SFRSYM    DATA     BYTE      WDT_CONTR
      000000DFH   SFRSYM    DATA     BYTE      IP3
      000000F4H   SFRSYM    DATA     BYTE      USBCON
      000000B5H   SFRSYM    DATA     BYTE      IP2
      000000FFH   SFRSYM    DATA     BYTE      RSTCFG
      000000C7H   SFRSYM    DATA     BYTE      IAP_CONTR
      000000F9H   SFRSYM    DATA     BYTE      LINICR
      0000008EH   SFRSYM    DATA     BYTE      AUXR
      000000AFH   SFRSYM    DATA     BYTE      IE2
      000000B0H.2 SFRSYM    DATA     BIT       KEY_SET
      00000088H   SFRSYM    DATA     BYTE      TCON
      00000089H   SFRSYM    DATA     BYTE      TMOD
      00000098H   SFRSYM    DATA     BYTE      SCON
      000000F1H   SFRSYM    DATA     BYTE      CANICR
L251 LINKER/LOCATER V4.66.93.0                                                        10/29/2024  08:37:11  PAGE 53


      00000087H   SFRSYM    DATA     BYTE      PCON
      000000BCH   SFRSYM    DATA     BYTE      ADC_CONTR
      000000B0H.5 SFRSYM    DATA     BIT       KEY_RETURN
      000000E7H   SFRSYM    DATA     BYTE      CMPCR2
      000000E6H   SFRSYM    DATA     BYTE      CMPCR1
      000000DEH   SFRSYM    DATA     BYTE      ADCCFG
      000000B8H   SFRSYM    DATA     BYTE      IP
      0000008FH   SFRSYM    DATA     BYTE      INTCLKO
      000000EEH   SFRSYM    DATA     BYTE      IP3H
      000000B6H   SFRSYM    DATA     BYTE      IP2H
      000000A8H   SFRSYM    DATA     BYTE      IE
      000000BBH   SFRSYM    DATA     BYTE      P_SW3
      000000BAH   SFRSYM    DATA     BYTE      P_SW2
      000000A2H   SFRSYM    DATA     BYTE      P_SW1
      000000CEH   SFRSYM    DATA     BYTE      SPCTL
      000000F8H   SFRSYM    DATA     BYTE      P7
      000000E8H   SFRSYM    DATA     BYTE      P6
      000000C8H   SFRSYM    DATA     BYTE      P5
      000000C0H   SFRSYM    DATA     BYTE      P4
      000000B0H.7 SFRSYM    DATA     BIT       KEY_DOWN
      000000B0H   SFRSYM    DATA     BYTE      P3
      000000A0H   SFRSYM    DATA     BYTE      P2
      00000090H   SFRSYM    DATA     BYTE      P1
      00000080H   SFRSYM    DATA     BYTE      P0

      00FF9CCAH   BLOCK     CODE     ---       LVL=0
      00FF9CCAH   LINE      CODE     ---       #27
      00FF9CCAH   LINE      CODE     ---       #31
      ---         BLOCKEND  ---      ---       LVL=0

      00FF9AEBH   BLOCK     CODE     ---       LVL=0
      00FF9AEBH   LINE      CODE     ---       #32
      00FF9AEBH   LINE      CODE     ---       #35
      00FF9AF0H   LINE      CODE     ---       #36
      00FF9AF4H   LINE      CODE     ---       #37
      00FF9AF8H   LINE      CODE     ---       #38
      00FF9AFCH   LINE      CODE     ---       #39
      00FF9B00H   LINE      CODE     ---       #40
      00FF9B04H   LINE      CODE     ---       #41
      00FF9B08H   LINE      CODE     ---       #42
      00FF9B0CH   LINE      CODE     ---       #43
      ---         BLOCKEND  ---      ---       LVL=0

      00FF93E9H   BLOCK     CODE     ---       LVL=0
      DR28        REGSYM    ---      DWORD     key
      REG=0       REGSYM    ---      ---       sys_key
      00FF93E9H   LINE      CODE     ---       #52
      00FF93EBH   LINE      CODE     ---       #54
      00FF93F3H   LINE      CODE     ---       #56
      00FF93F9H   LINE      CODE     ---       #58
      00FF9403H   LINE      CODE     ---       #59
      00FF940CH   LINE      CODE     ---       #60
      00FF9412H   LINE      CODE     ---       #61
      00FF9413H   LINE      CODE     ---       #64
      00FF9419H   LINE      CODE     ---       #65
      00FF9422H   LINE      CODE     ---       #67
      00FF9427H   LINE      CODE     ---       #68
      00FF942CH   LINE      CODE     ---       #69
      00FF942CH   LINE      CODE     ---       #70
      00FF942CH   LINE      CODE     ---       #71
      00FF942CH   LINE      CODE     ---       #72
      00FF942EH   LINE      CODE     ---       #75
      00FF9432H   LINE      CODE     ---       #76
      00FF943DH   LINE      CODE     ---       #79
      00FF9442H   LINE      CODE     ---       #80
L251 LINKER/LOCATER V4.66.93.0                                                        10/29/2024  08:37:11  PAGE 54


      00FF9447H   LINE      CODE     ---       #81
      00FF9447H   LINE      CODE     ---       #82
      00FF9447H   LINE      CODE     ---       #83
      ---         BLOCKEND  ---      ---       LVL=0

      00FF9554H   BLOCK     CODE     ---       LVL=0
      R10         REGSYM    ---      BYTE      period
      00FF9556H   BLOCK     CODE     NEAR LAB  LVL=1
      0000023CH   SYMBOL    EDATA    BYTE      i
      ---         BLOCKEND  ---      ---       LVL=1
      00FF9554H   LINE      CODE     ---       #84
      00FF9556H   LINE      CODE     ---       #85
      00FF9556H   LINE      CODE     ---       #87
      00FF955FH   LINE      CODE     ---       #88
      00FF9565H   LINE      CODE     ---       #90
      00FF956AH   LINE      CODE     ---       #91
      00FF9578H   LINE      CODE     ---       #92
      00FF9587H   LINE      CODE     ---       #93
      00FF9596H   LINE      CODE     ---       #94
      00FF95A5H   LINE      CODE     ---       #96
      ---         BLOCKEND  ---      ---       LVL=0

      ---         MODULE    ---      ---       TIME
      00FF9B0DH   PUBLIC    CODE     ---       Timer0_init
      00FF9B2AH   PUBLIC    CODE     ---       Timer1_init
      00FF9B7CH   PUBLIC    CODE     ---       Timer2_init
      00FF9B95H   PUBLIC    CODE     ---       Timer3_init
      00FF9BAEH   PUBLIC    CODE     ---       Timer4_init
      0000008EH.3 SFRSYM    DATA     BIT       T2_CT
      00000089H.6 SFRSYM    DATA     BIT       T1_CT
      00000089H.2 SFRSYM    DATA     BIT       T0_CT
      000000D0H   SFRSYM    DATA     BYTE      PSW
      0000009DH   SFRSYM    DATA     BYTE      IRCBAND
      00000097H   SFRSYM    DATA     BYTE      AUXR2
      000000EFH   SFRSYM    DATA     BYTE      AUXINTIF
      000000FDH   SFRSYM    DATA     BYTE      S4CON
      000000ACH   SFRSYM    DATA     BYTE      S3CON
      0000009AH   SFRSYM    DATA     BYTE      S2CON
      000000DDH.5 SFRSYM    DATA     BIT       T4x12
      000000DDH.1 SFRSYM    DATA     BIT       T3x12
      0000008EH.2 SFRSYM    DATA     BIT       T2x12
      0000008EH.6 SFRSYM    DATA     BIT       T1x12
      000000B7H   SFRSYM    DATA     BYTE      IPH
      000000CDH   SFRSYM    DATA     BYTE      SPSTAT
      0000008EH.7 SFRSYM    DATA     BIT       T0x12
      000000DDH   SFRSYM    DATA     BYTE      T4T3M
      000000DDH.7 SFRSYM    DATA     BIT       T4R
      000000DDH.3 SFRSYM    DATA     BIT       T3R
      0000008EH.4 SFRSYM    DATA     BIT       T2R
      000000C1H   SFRSYM    DATA     BYTE      WDT_CONTR
      00000088H.6 SFRSYM    DATA     BIT       TR1
      00000088H.4 SFRSYM    DATA     BIT       TR0
      000000D3H   SFRSYM    DATA     BYTE      T4L
      000000D5H   SFRSYM    DATA     BYTE      T3L
      000000D7H   SFRSYM    DATA     BYTE      T2L
      0000008BH   SFRSYM    DATA     BYTE      TL1
      0000008AH   SFRSYM    DATA     BYTE      TL0
      000000D2H   SFRSYM    DATA     BYTE      T4H
      000000D4H   SFRSYM    DATA     BYTE      T3H
      000000D6H   SFRSYM    DATA     BYTE      T2H
      0000008DH   SFRSYM    DATA     BYTE      TH1
      000000AFH.6 SFRSYM    DATA     BIT       ET4
      0000008CH   SFRSYM    DATA     BYTE      TH0
      000000AFH.5 SFRSYM    DATA     BIT       ET3
      000000DFH   SFRSYM    DATA     BYTE      IP3
L251 LINKER/LOCATER V4.66.93.0                                                        10/29/2024  08:37:11  PAGE 55


      000000F4H   SFRSYM    DATA     BYTE      USBCON
      000000AFH.2 SFRSYM    DATA     BIT       ET2
      000000B5H   SFRSYM    DATA     BYTE      IP2
      000000FFH   SFRSYM    DATA     BYTE      RSTCFG
      000000A8H.3 SFRSYM    DATA     BIT       ET1
      000000A8H.1 SFRSYM    DATA     BIT       ET0
      000000C7H   SFRSYM    DATA     BYTE      IAP_CONTR
      000000F9H   SFRSYM    DATA     BYTE      LINICR
      0000008EH   SFRSYM    DATA     BYTE      AUXR
      000000AFH   SFRSYM    DATA     BYTE      IE2
      00000088H   SFRSYM    DATA     BYTE      TCON
      00000089H   SFRSYM    DATA     BYTE      TMOD
      00000098H   SFRSYM    DATA     BYTE      SCON
      000000DDH.4 SFRSYM    DATA     BIT       T4CLKO
      000000DDH.0 SFRSYM    DATA     BIT       T3CLKO
      000000F1H   SFRSYM    DATA     BYTE      CANICR
      00000087H   SFRSYM    DATA     BYTE      PCON
      0000008FH.2 SFRSYM    DATA     BIT       T2CLKO
      000000BCH   SFRSYM    DATA     BYTE      ADC_CONTR
      0000008FH.1 SFRSYM    DATA     BIT       T1CLKO
      0000008FH.0 SFRSYM    DATA     BIT       T0CLKO
      000000E7H   SFRSYM    DATA     BYTE      CMPCR2
      000000E6H   SFRSYM    DATA     BYTE      CMPCR1
      000000DEH   SFRSYM    DATA     BYTE      ADCCFG
      000000B8H   SFRSYM    DATA     BYTE      IP
      0000008FH   SFRSYM    DATA     BYTE      INTCLKO
      000000EEH   SFRSYM    DATA     BYTE      IP3H
      000000B6H   SFRSYM    DATA     BYTE      IP2H
      000000A8H   SFRSYM    DATA     BYTE      IE
      000000BBH   SFRSYM    DATA     BYTE      P_SW3
      000000BAH   SFRSYM    DATA     BYTE      P_SW2
      000000A2H   SFRSYM    DATA     BYTE      P_SW1
      000000CEH   SFRSYM    DATA     BYTE      SPCTL
      000000F8H   SFRSYM    DATA     BYTE      P7
      000000E8H   SFRSYM    DATA     BYTE      P6
      000000C8H   SFRSYM    DATA     BYTE      P5
      000000C0H   SFRSYM    DATA     BYTE      P4
      000000B0H   SFRSYM    DATA     BYTE      P3
      000000A0H   SFRSYM    DATA     BYTE      P2
      00000090H   SFRSYM    DATA     BYTE      P1
      00000080H   SFRSYM    DATA     BYTE      P0
      000000DDH.6 SFRSYM    DATA     BIT       T4_CT
      000000DDH.2 SFRSYM    DATA     BIT       T3_CT

      00FF9B0DH   BLOCK     CODE     ---       LVL=0
      00FF9B0DH   LINE      CODE     ---       #18
      00FF9B0DH   LINE      CODE     ---       #20
      00FF9B0FH   LINE      CODE     ---       #26
      00FF9B11H   LINE      CODE     ---       #28
      00FF9B14H   LINE      CODE     ---       #29
      00FF9B18H   LINE      CODE     ---       #31
      00FF9B1BH   LINE      CODE     ---       #33
      00FF9B1EH   LINE      CODE     ---       #36
      00FF9B21H   LINE      CODE     ---       #37
      00FF9B24H   LINE      CODE     ---       #38
      00FF9B27H   LINE      CODE     ---       #45
      00FF9B29H   LINE      CODE     ---       #50
      ---         BLOCKEND  ---      ---       LVL=0

      00FF9B2AH   BLOCK     CODE     ---       LVL=0
      00FF9B2AH   LINE      CODE     ---       #59
      00FF9B2AH   LINE      CODE     ---       #61
      00FF9B2CH   LINE      CODE     ---       #67
      00FF9B2EH   LINE      CODE     ---       #69
      00FF9B31H   LINE      CODE     ---       #70
L251 LINKER/LOCATER V4.66.93.0                                                        10/29/2024  08:37:11  PAGE 56


      00FF9B35H   LINE      CODE     ---       #72
      00FF9B38H   LINE      CODE     ---       #74
      00FF9B3BH   LINE      CODE     ---       #77
      00FF9B3EH   LINE      CODE     ---       #78
      00FF9B41H   LINE      CODE     ---       #79
      00FF9B44H   LINE      CODE     ---       #86
      00FF9B46H   LINE      CODE     ---       #91
      ---         BLOCKEND  ---      ---       LVL=0

      00FF9B7CH   BLOCK     CODE     ---       LVL=0
      00FF9B7CH   LINE      CODE     ---       #100
      00FF9B7CH   LINE      CODE     ---       #102
      00FF9B7FH   LINE      CODE     ---       #108
      00FF9B82H   LINE      CODE     ---       #110
      00FF9B85H   LINE      CODE     ---       #112
      00FF9B88H   LINE      CODE     ---       #115
      00FF9B8BH   LINE      CODE     ---       #116
      00FF9B8EH   LINE      CODE     ---       #117
      00FF9B91H   LINE      CODE     ---       #124
      00FF9B94H   LINE      CODE     ---       #129
      ---         BLOCKEND  ---      ---       LVL=0

      00FF9B95H   BLOCK     CODE     ---       LVL=0
      00FF9B95H   LINE      CODE     ---       #138
      00FF9B95H   LINE      CODE     ---       #140
      00FF9B98H   LINE      CODE     ---       #146
      00FF9B9BH   LINE      CODE     ---       #148
      00FF9B9EH   LINE      CODE     ---       #150
      00FF9BA1H   LINE      CODE     ---       #153
      00FF9BA4H   LINE      CODE     ---       #154
      00FF9BA7H   LINE      CODE     ---       #155
      00FF9BAAH   LINE      CODE     ---       #162
      00FF9BADH   LINE      CODE     ---       #167
      ---         BLOCKEND  ---      ---       LVL=0

      00FF9BAEH   BLOCK     CODE     ---       LVL=0
      00FF9BAEH   LINE      CODE     ---       #176
      00FF9BAEH   LINE      CODE     ---       #178
      00FF9BB1H   LINE      CODE     ---       #184
      00FF9BB4H   LINE      CODE     ---       #186
      00FF9BB7H   LINE      CODE     ---       #188
      00FF9BBAH   LINE      CODE     ---       #191
      00FF9BBDH   LINE      CODE     ---       #192
      00FF9BC0H   LINE      CODE     ---       #193
      00FF9BC3H   LINE      CODE     ---       #200
      00FF9BC6H   LINE      CODE     ---       #205
      ---         BLOCKEND  ---      ---       LVL=0

      ---         MODULE    ---      ---       spi
      00FF9318H   PUBLIC    CODE     ---       SPI_init
      00FF99B4H   PUBLIC    CODE     ---       HAL_SPI_Init
      000000D0H   SFRSYM    DATA     BYTE      PSW
      0000009DH   SFRSYM    DATA     BYTE      IRCBAND
      00000097H   SFRSYM    DATA     BYTE      AUXR2
      000000EFH   SFRSYM    DATA     BYTE      AUXINTIF
      000000FDH   SFRSYM    DATA     BYTE      S4CON
      000000ACH   SFRSYM    DATA     BYTE      S3CON
      0000009AH   SFRSYM    DATA     BYTE      S2CON
      000000B7H   SFRSYM    DATA     BYTE      IPH
      000000CDH   SFRSYM    DATA     BYTE      SPSTAT
      000000DDH   SFRSYM    DATA     BYTE      T4T3M
      000000C1H   SFRSYM    DATA     BYTE      WDT_CONTR
      000000DFH   SFRSYM    DATA     BYTE      IP3
      000000F4H   SFRSYM    DATA     BYTE      USBCON
      000000B5H   SFRSYM    DATA     BYTE      IP2
L251 LINKER/LOCATER V4.66.93.0                                                        10/29/2024  08:37:11  PAGE 57


      000000FFH   SFRSYM    DATA     BYTE      RSTCFG
      000000DCH   SFRSYM    DATA     BYTE      USBCLK
      000000C7H   SFRSYM    DATA     BYTE      IAP_CONTR
      000000F9H   SFRSYM    DATA     BYTE      LINICR
      0000008EH   SFRSYM    DATA     BYTE      AUXR
      000000AFH   SFRSYM    DATA     BYTE      IE2
      000000CDH.6 SFRSYM    DATA     BIT       WCOL
      00000088H   SFRSYM    DATA     BYTE      TCON
      00000089H   SFRSYM    DATA     BYTE      TMOD
      00000090H.3 SFRSYM    DATA     BIT       OLED_SDIN
      00000098H   SFRSYM    DATA     BYTE      SCON
      00000090H.5 SFRSYM    DATA     BIT       OLED_SCLK
      000000CDH.7 SFRSYM    DATA     BIT       SPIF
      000000F1H   SFRSYM    DATA     BYTE      CANICR
      00000087H   SFRSYM    DATA     BYTE      PCON
      000000BCH   SFRSYM    DATA     BYTE      ADC_CONTR
      000000E7H   SFRSYM    DATA     BYTE      CMPCR2
      000000E6H   SFRSYM    DATA     BYTE      CMPCR1
      000000DEH   SFRSYM    DATA     BYTE      ADCCFG
      000000B8H   SFRSYM    DATA     BYTE      IP
      0000008FH   SFRSYM    DATA     BYTE      INTCLKO
      000000EEH   SFRSYM    DATA     BYTE      IP3H
      000000B6H   SFRSYM    DATA     BYTE      IP2H
      000000A8H   SFRSYM    DATA     BYTE      IE
      000000BBH   SFRSYM    DATA     BYTE      P_SW3
      000000BAH   SFRSYM    DATA     BYTE      P_SW2
      000000A2H   SFRSYM    DATA     BYTE      P_SW1
      000000CEH   SFRSYM    DATA     BYTE      SPCTL
      000000F8H   SFRSYM    DATA     BYTE      P7
      000000E8H   SFRSYM    DATA     BYTE      P6
      000000C8H   SFRSYM    DATA     BYTE      P5
      000000C0H   SFRSYM    DATA     BYTE      P4
      000000B0H   SFRSYM    DATA     BYTE      P3
      000000A0H   SFRSYM    DATA     BYTE      P2
      00000090H   SFRSYM    DATA     BYTE      P1
      00000080H   SFRSYM    DATA     BYTE      P0

      00FF99B4H   BLOCK     CODE     ---       LVL=0
      00FF99B4H   LINE      CODE     ---       #33
      00FF99B4H   LINE      CODE     ---       #35
      00FF99B7H   LINE      CODE     ---       #36
      00FF99BAH   LINE      CODE     ---       #37
      00FF99BDH   LINE      CODE     ---       #38
      00FF99C0H   LINE      CODE     ---       #39
      00FF99C3H   LINE      CODE     ---       #40
      00FF99C6H   LINE      CODE     ---       #41
      00FF99CEH   LINE      CODE     ---       #42
      00FF99DEH   LINE      CODE     ---       #43
      00FF99E1H   LINE      CODE     ---       #44
      00FF99E3H   LINE      CODE     ---       #45
      00FF99E5H   LINE      CODE     ---       #46
      00FF99E8H   LINE      CODE     ---       #47
      00FF99EBH   LINE      CODE     ---       #49
      ---         BLOCKEND  ---      ---       LVL=0

      00FF9318H   BLOCK     CODE     ---       LVL=0
      00FF9318H   LINE      CODE     ---       #50
      00FF9318H   LINE      CODE     ---       #54
      00FF9328H   LINE      CODE     ---       #62
      00FF932BH   LINE      CODE     ---       #72
      00FF932FH   LINE      CODE     ---       #76
      00FF9332H   LINE      CODE     ---       #77
      00FF9339H   LINE      CODE     ---       #83
      00FF9349H   LINE      CODE     ---       #88
      00FF9352H   LINE      CODE     ---       #96
L251 LINKER/LOCATER V4.66.93.0                                                        10/29/2024  08:37:11  PAGE 58


      00FF9355H   LINE      CODE     ---       #97
      00FF9358H   LINE      CODE     ---       #98
      00FF935BH   LINE      CODE     ---       #99
      00FF935EH   LINE      CODE     ---       #100
      00FF9361H   LINE      CODE     ---       #101
      00FF9364H   LINE      CODE     ---       #102
      00FF936CH   LINE      CODE     ---       #104
      00FF936FH   LINE      CODE     ---       #107
      00FF9372H   LINE      CODE     ---       #108
      00FF9375H   LINE      CODE     ---       #110
      00FF9381H   LINE      CODE     ---       #111
      ---         BLOCKEND  ---      ---       LVL=0

      ---         MODULE    ---      ---       PWM
      00FF91BEH   PUBLIC    CODE     ---       pwm_init_blk
      00FF9AC6H   PUBLIC    CODE     ---       UpdatePwm
      00FF90C7H   PUBLIC    CODE     ---       pwm_init_beep
      00000020H.0 PUBLIC    BIT      BIT       PWM1_Flag
      00000020H.1 PUBLIC    BIT      BIT       PWM2_Flag
      00000020H.2 PUBLIC    BIT      BIT       PWM3_Flag
      00000020H.3 PUBLIC    BIT      BIT       PWM4_Flag
      00000020H.4 PUBLIC    BIT      BIT       B_1ms
      00000286H   PUBLIC    EDATA    WORD      PWM1_Duty
      00000288H   PUBLIC    EDATA    WORD      PWM2_Duty
      0000028AH   PUBLIC    EDATA    WORD      PWM3_Duty
      0000028CH   PUBLIC    EDATA    WORD      PWM4_Duty
      000000D0H   SFRSYM    DATA     BYTE      PSW
      0000009DH   SFRSYM    DATA     BYTE      IRCBAND
      00000097H   SFRSYM    DATA     BYTE      AUXR2
      000000EFH   SFRSYM    DATA     BYTE      AUXINTIF
      000000FDH   SFRSYM    DATA     BYTE      S4CON
      000000ACH   SFRSYM    DATA     BYTE      S3CON
      0000009AH   SFRSYM    DATA     BYTE      S2CON
      000000B7H   SFRSYM    DATA     BYTE      IPH
      000000CDH   SFRSYM    DATA     BYTE      SPSTAT
      000000DDH   SFRSYM    DATA     BYTE      T4T3M
      000000C1H   SFRSYM    DATA     BYTE      WDT_CONTR
      000000DFH   SFRSYM    DATA     BYTE      IP3
      000000F4H   SFRSYM    DATA     BYTE      USBCON
      000000B5H   SFRSYM    DATA     BYTE      IP2
      000000FFH   SFRSYM    DATA     BYTE      RSTCFG
      000000C7H   SFRSYM    DATA     BYTE      IAP_CONTR
      000000F9H   SFRSYM    DATA     BYTE      LINICR
      0000008EH   SFRSYM    DATA     BYTE      AUXR
      000000AFH   SFRSYM    DATA     BYTE      IE2
      00000088H   SFRSYM    DATA     BYTE      TCON
      00000089H   SFRSYM    DATA     BYTE      TMOD
      00000098H   SFRSYM    DATA     BYTE      SCON
      000000F1H   SFRSYM    DATA     BYTE      CANICR
      00000087H   SFRSYM    DATA     BYTE      PCON
      000000BCH   SFRSYM    DATA     BYTE      ADC_CONTR
      000000E7H   SFRSYM    DATA     BYTE      CMPCR2
      000000E6H   SFRSYM    DATA     BYTE      CMPCR1
      000000DEH   SFRSYM    DATA     BYTE      ADCCFG
      000000B8H   SFRSYM    DATA     BYTE      IP
      0000008FH   SFRSYM    DATA     BYTE      INTCLKO
      000000EEH   SFRSYM    DATA     BYTE      IP3H
      000000B6H   SFRSYM    DATA     BYTE      IP2H
      000000A8H   SFRSYM    DATA     BYTE      IE
      000000BBH   SFRSYM    DATA     BYTE      P_SW3
      000000BAH   SFRSYM    DATA     BYTE      P_SW2
      000000A2H   SFRSYM    DATA     BYTE      P_SW1
      000000CEH   SFRSYM    DATA     BYTE      SPCTL
      000000F8H   SFRSYM    DATA     BYTE      P7
      000000E8H   SFRSYM    DATA     BYTE      P6
L251 LINKER/LOCATER V4.66.93.0                                                        10/29/2024  08:37:11  PAGE 59


      000000C8H   SFRSYM    DATA     BYTE      P5
      000000C0H   SFRSYM    DATA     BYTE      P4
      000000B0H   SFRSYM    DATA     BYTE      P3
      000000A0H   SFRSYM    DATA     BYTE      P2
      00000090H   SFRSYM    DATA     BYTE      P1
      00000080H   SFRSYM    DATA     BYTE      P0

      00FF90C7H   BLOCK     CODE     ---       LVL=0
      00FF90C7H   LINE      CODE     ---       #86
      00FF90C7H   LINE      CODE     ---       #89
      00FF90D3H   LINE      CODE     ---       #90
      00FF90DAH   LINE      CODE     ---       #91
      00FF90E7H   LINE      CODE     ---       #93
      00FF90ECH   LINE      CODE     ---       #95
      00FF90F5H   LINE      CODE     ---       #96
      00FF90FEH   LINE      CODE     ---       #97
      00FF9107H   LINE      CODE     ---       #98
      00FF9110H   LINE      CODE     ---       #100
      00FF9118H   LINE      CODE     ---       #101
      00FF9120H   LINE      CODE     ---       #104
      00FF9128H   LINE      CODE     ---       #105
      00FF9130H   LINE      CODE     ---       #107
      00FF9139H   LINE      CODE     ---       #108
      00FF9145H   LINE      CODE     ---       #110
      ---         BLOCKEND  ---      ---       LVL=0

      00FF91BEH   BLOCK     CODE     ---       LVL=0
      00FF91BEH   LINE      CODE     ---       #111
      00FF91BEH   LINE      CODE     ---       #113
      00FF91CAH   LINE      CODE     ---       #114
      00FF91D7H   LINE      CODE     ---       #115
      00FF91DCH   LINE      CODE     ---       #116
      00FF91E5H   LINE      CODE     ---       #117
      00FF91EEH   LINE      CODE     ---       #118
      00FF91F7H   LINE      CODE     ---       #119
      00FF9200H   LINE      CODE     ---       #120
      00FF9208H   LINE      CODE     ---       #121
      00FF9210H   LINE      CODE     ---       #123
      00FF9218H   LINE      CODE     ---       #124
      00FF9220H   LINE      CODE     ---       #126
      00FF9229H   LINE      CODE     ---       #127
      00FF9235H   LINE      CODE     ---       #128
      ---         BLOCKEND  ---      ---       LVL=0

      00FF9AC6H   BLOCK     CODE     ---       LVL=0
      WR10        REGSYM    ---      WORD      frequency
      WR0         REGSYM    ---      WORD      duty
      00FF9AC6H   LINE      CODE     ---       #136
      00FF9ACAH   LINE      CODE     ---       #138
      00FF9AD5H   LINE      CODE     ---       #139
      00FF9ADCH   LINE      CODE     ---       #140
      00FF9AE3H   LINE      CODE     ---       #141
      00FF9AEAH   LINE      CODE     ---       #143
      ---         BLOCKEND  ---      ---       LVL=0

      ---         MODULE    ---      ---       BUZZER
      00FF997BH   PUBLIC    CODE     ---       beep_update
      00FF988DH   PUBLIC    CODE     ---       beep_alarm
      00FF9CC3H   PUBLIC    CODE     ---       Init_buzzer
      00FF9731H   PUBLIC    CODE     ---       beep
      00FF9906H   PUBLIC    CODE     ---       beep_key
      00FF9CABH   PUBLIC    CODE     ---       tune_play
      00FF9CB7H   PUBLIC    CODE     ---       tune_stop
      00FF8D58H   PUBLIC    CODE     ---       tuneBtn_down
      00FF8D60H   PUBLIC    CODE     ---       tuneAlarm_OUT
L251 LINKER/LOCATER V4.66.93.0                                                        10/29/2024  08:37:11  PAGE 60


      00FF8D6EH   PUBLIC    CODE     ---       tuneBtn_set
      00FF8D74H   PUBLIC    CODE     ---       tuneUsbCharged
      00FF8D82H   PUBLIC    CODE     ---       tuneAlarm_IN
      00FF8DA4H   PUBLIC    CODE     ---       tuneBtn_up
      00FF8DACH   PUBLIC    CODE     ---       tuneAlarm
      00FF8DBEH   PUBLIC    CODE     ---       tuneAlarm_H
      00FF8DF8H   PUBLIC    CODE     ---       tuneAlarm_L
      000000D0H   SFRSYM    DATA     BYTE      PSW
      0000009DH   SFRSYM    DATA     BYTE      IRCBAND
      00000097H   SFRSYM    DATA     BYTE      AUXR2
      000000EFH   SFRSYM    DATA     BYTE      AUXINTIF
      000000FDH   SFRSYM    DATA     BYTE      S4CON
      000000ACH   SFRSYM    DATA     BYTE      S3CON
      0000009AH   SFRSYM    DATA     BYTE      S2CON
      000000B7H   SFRSYM    DATA     BYTE      IPH
      000000CDH   SFRSYM    DATA     BYTE      SPSTAT
      000000DDH   SFRSYM    DATA     BYTE      T4T3M
      000000C1H   SFRSYM    DATA     BYTE      WDT_CONTR
      000000DFH   SFRSYM    DATA     BYTE      IP3
      000000F4H   SFRSYM    DATA     BYTE      USBCON
      000000B5H   SFRSYM    DATA     BYTE      IP2
      000000FFH   SFRSYM    DATA     BYTE      RSTCFG
      000000C7H   SFRSYM    DATA     BYTE      IAP_CONTR
      000000F9H   SFRSYM    DATA     BYTE      LINICR
      0000008EH   SFRSYM    DATA     BYTE      AUXR
      000000AFH   SFRSYM    DATA     BYTE      IE2
      00000088H   SFRSYM    DATA     BYTE      TCON
      00000089H   SFRSYM    DATA     BYTE      TMOD
      00000098H   SFRSYM    DATA     BYTE      SCON
      000000F1H   SFRSYM    DATA     BYTE      CANICR
      00000087H   SFRSYM    DATA     BYTE      PCON
      000000BCH   SFRSYM    DATA     BYTE      ADC_CONTR
      000000E7H   SFRSYM    DATA     BYTE      CMPCR2
      000000E6H   SFRSYM    DATA     BYTE      CMPCR1
      000000DEH   SFRSYM    DATA     BYTE      ADCCFG
      000000B8H   SFRSYM    DATA     BYTE      IP
      0000008FH   SFRSYM    DATA     BYTE      INTCLKO
      000000EEH   SFRSYM    DATA     BYTE      IP3H
      000000B6H   SFRSYM    DATA     BYTE      IP2H
      000000A8H   SFRSYM    DATA     BYTE      IE
      000000BBH   SFRSYM    DATA     BYTE      P_SW3
      000000BAH   SFRSYM    DATA     BYTE      P_SW2
      000000A2H   SFRSYM    DATA     BYTE      P_SW1
      000000CEH   SFRSYM    DATA     BYTE      SPCTL
      000000F8H   SFRSYM    DATA     BYTE      P7
      000000E8H   SFRSYM    DATA     BYTE      P6
      000000C8H   SFRSYM    DATA     BYTE      P5
      000000C0H   SFRSYM    DATA     BYTE      P4
      000000B0H   SFRSYM    DATA     BYTE      P3
      000000A0H   SFRSYM    DATA     BYTE      P2
      00000090H   SFRSYM    DATA     BYTE      P1
      00000080H   SFRSYM    DATA     BYTE      P0
      00FF9448H   SYMBOL    CODE     ---       next
      0000024BH   SYMBOL    EDATA    BYTE      beep_state
      0000024CH   SYMBOL    EDATA    ---       tune
      00000250H   SYMBOL    EDATA    DWORD     beep_startTime
      00000254H   SYMBOL    EDATA    ---       onFinish
      00000256H   SYMBOL    EDATA    BYTE      idx
      00000257H   SYMBOL    EDATA    WORD      beep_lenTime

      00FF9CC3H   BLOCK     CODE     ---       LVL=0
      00FF9CC3H   LINE      CODE     ---       #166
      00FF9CC3H   LINE      CODE     ---       #168
      ---         BLOCKEND  ---      ---       LVL=0

L251 LINKER/LOCATER V4.66.93.0                                                        10/29/2024  08:37:11  PAGE 61


      00FF9731H   BLOCK     CODE     ---       LVL=0
      WR10        REGSYM    ---      WORD      frequency
      WR0         REGSYM    ---      WORD      duty
      WR2         REGSYM    ---      WORD      time
      R15         REGSYM    ---      BYTE      state
      REG=4       REGSYM    ---      ---       _onFinish
      00FF9731H   LINE      CODE     ---       #171
      00FF973BH   LINE      CODE     ---       #173
      00FF973FH   LINE      CODE     ---       #174
      00FF9747H   LINE      CODE     ---       #175
      00FF974BH   LINE      CODE     ---       #176
      00FF974FH   LINE      CODE     ---       #178
      00FF975AH   LINE      CODE     ---       #179
      00FF9761H   LINE      CODE     ---       #180
      00FF9768H   LINE      CODE     ---       #181
      00FF976FH   LINE      CODE     ---       #182
      00FF9778H   LINE      CODE     ---       #183
      ---         BLOCKEND  ---      ---       LVL=0

      00FF997BH   BLOCK     CODE     ---       LVL=0
      00FF997BH   LINE      CODE     ---       #185
      00FF997BH   LINE      CODE     ---       #187
      00FF9995H   LINE      CODE     ---       #189
      00FF99A5H   LINE      CODE     ---       #190
      00FF99ADH   LINE      CODE     ---       #191
      00FF99B3H   LINE      CODE     ---       #192
      00FF99B3H   LINE      CODE     ---       #194
      ---         BLOCKEND  ---      ---       LVL=0

      00FF9CABH   BLOCK     CODE     ---       LVL=0
      REG=0       REGSYM    ---      ---       _tune
      00FF9CABH   LINE      CODE     ---       #195
      00FF9CABH   LINE      CODE     ---       #199
      00FF9CAFH   LINE      CODE     ---       #200
      00FF9CB4H   LINE      CODE     ---       #203
      ---         BLOCKEND  ---      ---       LVL=0

      00FF9448H   BLOCK     CODE     ---       LVL=0
      00FF944AH   BLOCK     CODE     NEAR LAB  LVL=1
      WR4         REGSYM    ---      WORD      tune_data
      R15         REGSYM    ---      BYTE      len
      ---         BLOCKEND  ---      ---       LVL=1
      00FF9448H   LINE      CODE     ---       #205
      00FF944AH   LINE      CODE     ---       #206
      00FF944AH   LINE      CODE     ---       #208
      00FF9465H   LINE      CODE     ---       #210
      00FF9467H   LINE      CODE     ---       #223
      00FF946CH   LINE      CODE     ---       #226
      00FF9486H   LINE      CODE     ---       #229
      00FF948AH   LINE      CODE     ---       #231
      00FF949AH   LINE      CODE     ---       #232
      00FF949CH   LINE      CODE     ---       #237
      00FF94A1H   LINE      CODE     ---       #238
      00FF94A4H   LINE      CODE     ---       #239
      00FF94A4H   LINE      CODE     ---       #240
      ---         BLOCKEND  ---      ---       LVL=0

      00FF9CB7H   BLOCK     CODE     ---       LVL=0
      00FF9CB7H   LINE      CODE     ---       #242
      00FF9CB7H   LINE      CODE     ---       #244
      ---         BLOCKEND  ---      ---       LVL=0

      00FF9906H   BLOCK     CODE     ---       LVL=0
      WR6         REGSYM    ---      INT       btn
      00FF9906H   LINE      CODE     ---       #247
L251 LINKER/LOCATER V4.66.93.0                                                        10/29/2024  08:37:11  PAGE 62


      00FF9906H   LINE      CODE     ---       #250
      00FF9918H   LINE      CODE     ---       #252
      00FF9922H   LINE      CODE     ---       #253
      00FF992CH   LINE      CODE     ---       #254
      00FF9936H   LINE      CODE     ---       #255
      00FF9941H   LINE      CODE     ---       #256
      00FF9941H   LINE      CODE     ---       #257
      00FF9941H   LINE      CODE     ---       #258
      ---         BLOCKEND  ---      ---       LVL=0

      00FF988DH   BLOCK     CODE     ---       LVL=0
      R7          REGSYM    ---      BYTE      i
      00FF988DH   LINE      CODE     ---       #259
      00FF988FH   LINE      CODE     ---       #261
      00FF98A0H   LINE      CODE     ---       #263
      00FF98AAH   LINE      CODE     ---       #264
      00FF98B4H   LINE      CODE     ---       #265
      00FF98BEH   LINE      CODE     ---       #266
      00FF98C9H   LINE      CODE     ---       #267
      00FF98C9H   LINE      CODE     ---       #268
      00FF98C9H   LINE      CODE     ---       #270
      ---         BLOCKEND  ---      ---       LVL=0

      ---         MODULE    ---      ---       STC32G_EEPROM
      00FF9C60H   PUBLIC    CODE     ---       DisableEEPROM
      00FF9B47H   PUBLIC    CODE     ---       EEPROM_SectorErase
      00FF977BH   PUBLIC    CODE     ---       EEPROM_read_n
      00FF97C2H   PUBLIC    CODE     ---       EEPROM_write_n
      00FF9C24H   PUBLIC    CODE     ---       EEPROM_Trig
      0000017BH   PUBLIC    EDATA    BYTE      ?EEPROM_read_n?BYTE
      0000017BH   PUBLIC    EDATA    BYTE      ?EEPROM_write_n?BYTE
      000000D0H   SFRSYM    DATA     BYTE      PSW
      0000009DH   SFRSYM    DATA     BYTE      IRCBAND
      000000D0H.5 SFRSYM    DATA     BIT       F0
      00000097H   SFRSYM    DATA     BYTE      AUXR2
      000000C6H   SFRSYM    DATA     BYTE      IAP_TRIG
      000000C7H.7 SFRSYM    DATA     BIT       IAPEN
      000000EFH   SFRSYM    DATA     BYTE      AUXINTIF
      000000FDH   SFRSYM    DATA     BYTE      S4CON
      000000ACH   SFRSYM    DATA     BYTE      S3CON
      0000009AH   SFRSYM    DATA     BYTE      S2CON
      000000B7H   SFRSYM    DATA     BYTE      IPH
      000000CDH   SFRSYM    DATA     BYTE      SPSTAT
      000000DDH   SFRSYM    DATA     BYTE      T4T3M
      000000C1H   SFRSYM    DATA     BYTE      WDT_CONTR
      000000C2H   SFRSYM    DATA     BYTE      IAP_DATA
      000000DFH   SFRSYM    DATA     BYTE      IP3
      000000F4H   SFRSYM    DATA     BYTE      USBCON
      000000B5H   SFRSYM    DATA     BYTE      IP2
      000000FFH   SFRSYM    DATA     BYTE      RSTCFG
      000000C7H   SFRSYM    DATA     BYTE      IAP_CONTR
      000000F9H   SFRSYM    DATA     BYTE      LINICR
      0000008EH   SFRSYM    DATA     BYTE      AUXR
      000000AFH   SFRSYM    DATA     BYTE      IE2
      00000088H   SFRSYM    DATA     BYTE      TCON
      00000089H   SFRSYM    DATA     BYTE      TMOD
      00000098H   SFRSYM    DATA     BYTE      SCON
      000000F5H   SFRSYM    DATA     BYTE      IAP_TPS
      000000F1H   SFRSYM    DATA     BYTE      CANICR
      00000087H   SFRSYM    DATA     BYTE      PCON
      000000BCH   SFRSYM    DATA     BYTE      ADC_CONTR
      000000E7H   SFRSYM    DATA     BYTE      CMPCR2
      000000E6H   SFRSYM    DATA     BYTE      CMPCR1
      000000C4H   SFRSYM    DATA     BYTE      IAP_ADDRL
      000000C3H   SFRSYM    DATA     BYTE      IAP_ADDRH
L251 LINKER/LOCATER V4.66.93.0                                                        10/29/2024  08:37:11  PAGE 63


      000000F6H   SFRSYM    DATA     BYTE      IAP_ADDRE
      000000DEH   SFRSYM    DATA     BYTE      ADCCFG
      000000B8H   SFRSYM    DATA     BYTE      IP
      0000008FH   SFRSYM    DATA     BYTE      INTCLKO
      000000EEH   SFRSYM    DATA     BYTE      IP3H
      000000B6H   SFRSYM    DATA     BYTE      IP2H
      000000C5H   SFRSYM    DATA     BYTE      IAP_CMD
      000000A8H   SFRSYM    DATA     BYTE      IE
      000000BBH   SFRSYM    DATA     BYTE      P_SW3
      000000BAH   SFRSYM    DATA     BYTE      P_SW2
      000000A2H   SFRSYM    DATA     BYTE      P_SW1
      000000CEH   SFRSYM    DATA     BYTE      SPCTL
      000000F8H   SFRSYM    DATA     BYTE      P7
      000000A8H.7 SFRSYM    DATA     BIT       EA
      000000E8H   SFRSYM    DATA     BYTE      P6
      000000C8H   SFRSYM    DATA     BYTE      P5
      000000C0H   SFRSYM    DATA     BYTE      P4
      000000B0H   SFRSYM    DATA     BYTE      P3
      000000A0H   SFRSYM    DATA     BYTE      P2
      00000090H   SFRSYM    DATA     BYTE      P1
      00000080H   SFRSYM    DATA     BYTE      P0

      00FF9C60H   BLOCK     CODE     ---       LVL=0
      00FF9C60H   LINE      CODE     ---       #22
      00FF9C60H   LINE      CODE     ---       #24
      00FF9C63H   LINE      CODE     ---       #25
      00FF9C66H   LINE      CODE     ---       #26
      00FF9C69H   LINE      CODE     ---       #27
      00FF9C6CH   LINE      CODE     ---       #28
      00FF9C6FH   LINE      CODE     ---       #29
      00FF9C72H   LINE      CODE     ---       #30
      ---         BLOCKEND  ---      ---       LVL=0

      00FF9C24H   BLOCK     CODE     ---       LVL=0
      00FF9C24H   LINE      CODE     ---       #39
      00FF9C24H   LINE      CODE     ---       #41
      00FF9C28H   LINE      CODE     ---       #42
      00FF9C2AH   LINE      CODE     ---       #43
      00FF9C2DH   LINE      CODE     ---       #44
      00FF9C30H   LINE      CODE     ---       #47
      00FF9C31H   LINE      CODE     ---       #48
      00FF9C32H   LINE      CODE     ---       #49
      00FF9C33H   LINE      CODE     ---       #50
      00FF9C34H   LINE      CODE     ---       #51
      00FF9C38H   LINE      CODE     ---       #52
      ---         BLOCKEND  ---      ---       LVL=0

      00FF977BH   BLOCK     CODE     ---       LVL=0
      DR12        REGSYM    ---      DWORD     EE_address
      0000017FH   SYMBOL    EDATA    ---       DataAddress
      00000183H   SYMBOL    EDATA    WORD      number
      00FF977BH   LINE      CODE     ---       #63
      00FF9783H   LINE      CODE     ---       #65
      00FF9789H   LINE      CODE     ---       #66
      00FF978CH   LINE      CODE     ---       #67
      00FF978CH   LINE      CODE     ---       #69
      00FF9790H   LINE      CODE     ---       #70
      00FF9794H   LINE      CODE     ---       #71
      00FF9798H   LINE      CODE     ---       #72
      00FF979BH   LINE      CODE     ---       #73
      00FF97A4H   LINE      CODE     ---       #74
      00FF97A6H   LINE      CODE     ---       #75
      00FF97B0H   LINE      CODE     ---       #76
      00FF97BCH   LINE      CODE     ---       #78
      00FF97BFH   LINE      CODE     ---       #79
L251 LINKER/LOCATER V4.66.93.0                                                        10/29/2024  08:37:11  PAGE 64


      ---         BLOCKEND  ---      ---       LVL=0

      00FF9B47H   BLOCK     CODE     ---       LVL=0
      DR4         REGSYM    ---      DWORD     EE_address
      00FF9B47H   LINE      CODE     ---       #88
      00FF9B47H   LINE      CODE     ---       #90
      00FF9B4DH   LINE      CODE     ---       #91
      00FF9B50H   LINE      CODE     ---       #94
      00FF9B54H   LINE      CODE     ---       #95
      00FF9B58H   LINE      CODE     ---       #96
      00FF9B5CH   LINE      CODE     ---       #97
      00FF9B5FH   LINE      CODE     ---       #98
      ---         BLOCKEND  ---      ---       LVL=0

      00FF97C2H   BLOCK     CODE     ---       LVL=0
      DR12        REGSYM    ---      DWORD     EE_address
      0000017FH   SYMBOL    EDATA    ---       DataAddress
      00000183H   SYMBOL    EDATA    WORD      number
      00FF97C2H   LINE      CODE     ---       #110
      00FF97CAH   LINE      CODE     ---       #112
      00FF97D0H   LINE      CODE     ---       #113
      00FF97D3H   LINE      CODE     ---       #114
      00FF97D3H   LINE      CODE     ---       #116
      00FF97D7H   LINE      CODE     ---       #117
      00FF97DBH   LINE      CODE     ---       #118
      00FF97DFH   LINE      CODE     ---       #119
      00FF97E8H   LINE      CODE     ---       #120
      00FF97EBH   LINE      CODE     ---       #121
      00FF97EDH   LINE      CODE     ---       #122
      00FF97F7H   LINE      CODE     ---       #123
      00FF9803H   LINE      CODE     ---       #124
      00FF9806H   LINE      CODE     ---       #125
      ---         BLOCKEND  ---      ---       LVL=0

      ---         MODULE    ---      ---       ?C?FPADD
      00FF54ECH   PUBLIC    CODE     ---       ?C?FPADD
      00FF54E9H   PUBLIC    CODE     ---       ?C?FPSUB

      ---         MODULE    ---      ---       ?C?FPMUL
      00FF55A4H   PUBLIC    CODE     ---       ?C?FPMUL

      ---         MODULE    ---      ---       ?C?FPDIV
      00FF5644H   PUBLIC    CODE     ---       ?C?FPDIV

      ---         MODULE    ---      ---       ?C?FPCMP
      00FF56C7H   PUBLIC    CODE     ---       ?C?FPCMP
      00FF56C5H   PUBLIC    CODE     ---       ?C?FPCMP3

      ---         MODULE    ---      ---       ?C?FCAST
      00FF5715H   PUBLIC    CODE     NEAR LAB  ?C?FCASTC
      00FF5710H   PUBLIC    CODE     NEAR LAB  ?C?FCASTI
      00FF570BH   PUBLIC    CODE     NEAR LAB  ?C?FCASTL

      ---         MODULE    ---      ---       ?C?CASTF
      00FF5748H   PUBLIC    CODE     NEAR LAB  ?C?CASTF

      ---         MODULE    ---      ---       ?C?FPGETOPN
      00FF5785H   PUBLIC    CODE     ---       ?C?FPGETOPN2
      00FF57C2H   PUBLIC    CODE     ---       ?C?FPNANRESULT
      00FF57CAH   PUBLIC    CODE     ---       ?C?FPOVERFLOW
      00FF579EH   PUBLIC    CODE     ---       ?C?FPRESULT
      00FF57B4H   PUBLIC    CODE     ---       ?C?FPRESULT2
      00FF57C7H   PUBLIC    CODE     ---       ?C?FPUNDERFLOW

      ---         MODULE    ---      ---       ?C_START
L251 LINKER/LOCATER V4.66.93.0                                                        10/29/2024  08:37:11  PAGE 65


      00FF0000H   PUBLIC    CODE     ---       ?C?STARTUP
      00FF0000H   PUBLIC    CODE     ---       ?C_STARTUP

      ---         MODULE    ---      ---       ?C?INITEDATA
      00FF92BBH   PUBLIC    CODE     ---       ?C?INITEDATA

      ---         MODULE    ---      ---       ?C?INITHDATA
      00FF92E4H   PUBLIC    CODE     ---       ?C?INITHDATA

      ---         MODULE    ---      ---       ?C?SIDIV
      00FF57D6H   PUBLIC    CODE     ---       ?C?SIDIV

      ---         MODULE    ---      ---       ?C?LMUL
      00FF5808H   PUBLIC    CODE     ---       ?C?LMUL

      ---         MODULE    ---      ---       ?C?ULDIV
      00FF581BH   PUBLIC    CODE     NEAR LAB  ?C?ULDIV
      00FF5819H   PUBLIC    CODE     NEAR LAB  ?C?ULIDIV

      ---         MODULE    ---      ---       ?C?INITEDATA_END
      00FF9E50H   PUBLIC    HCONST   WORD      ?C?INITEDATA_END

      ---         MODULE    ---      ---       ?C?INITHDATA_END
      00FF9F95H   PUBLIC    HCONST   WORD      ?C?INITHDATA_END



*** WARNING L57: UNCALLED FUNCTION, IGNORED FOR OVERLAY PROCESS
    NAME:    power/SYSTEM

*** WARNING L57: UNCALLED FUNCTION, IGNORED FOR OVERLAY PROCESS
    NAME:    LCD_ShowFloatNum1/lcd

*** WARNING L57: UNCALLED FUNCTION, IGNORED FOR OVERLAY PROCESS
    NAME:    LCD_ShowPicture/lcd

*** WARNING L57: UNCALLED FUNCTION, IGNORED FOR OVERLAY PROCESS
    NAME:    Draw_Circle/lcd

*** WARNING L57: UNCALLED FUNCTION, IGNORED FOR OVERLAY PROCESS
    NAME:    LCD_DrawRectangle/lcd

*** WARNING L57: UNCALLED FUNCTION, IGNORED FOR OVERLAY PROCESS
    NAME:    menu_level_2b/multi_menu

*** WARNING L57: UNCALLED FUNCTION, IGNORED FOR OVERLAY PROCESS
    NAME:    fun_font_color_a/multi_menu

*** WARNING L57: UNCALLED FUNCTION, IGNORED FOR OVERLAY PROCESS
    NAME:    fun_font_color_v/multi_menu

*** WARNING L57: UNCALLED FUNCTION, IGNORED FOR OVERLAY PROCESS
    NAME:    fun_menu_adjust/multi_menu

*** WARNING L57: UNCALLED FUNCTION, IGNORED FOR OVERLAY PROCESS
    NAME:    fun_alarm_In/multi_menu

*** WARNING L57: UNCALLED FUNCTION, IGNORED FOR OVERLAY PROCESS
    NAME:    fun_menu_alarm/multi_menu

*** WARNING L57: UNCALLED FUNCTION, IGNORED FOR OVERLAY PROCESS
    NAME:    fun_alarm_Out/multi_menu

*** WARNING L57: UNCALLED FUNCTION, IGNORED FOR OVERLAY PROCESS
    NAME:    fun_0/multi_menu
L251 LINKER/LOCATER V4.66.93.0                                                        10/29/2024  08:37:11  PAGE 66



*** WARNING L57: UNCALLED FUNCTION, IGNORED FOR OVERLAY PROCESS
    NAME:    fun_alarm_H/multi_menu

*** WARNING L57: UNCALLED FUNCTION, IGNORED FOR OVERLAY PROCESS
    NAME:    fun_alarm_L/multi_menu

*** WARNING L57: UNCALLED FUNCTION, IGNORED FOR OVERLAY PROCESS
    NAME:    fun_menu_main/multi_menu

*** WARNING L57: UNCALLED FUNCTION, IGNORED FOR OVERLAY PROCESS
    NAME:    fun_fong_style/multi_menu

*** WARNING L57: UNCALLED FUNCTION, IGNORED FOR OVERLAY PROCESS
    NAME:    fun_c21/multi_menu

*** WARNING L57: UNCALLED FUNCTION, IGNORED FOR OVERLAY PROCESS
    NAME:    fun_b33/multi_menu

*** WARNING L57: UNCALLED FUNCTION, IGNORED FOR OVERLAY PROCESS
    NAME:    fun_b34/multi_menu

*** WARNING L57: UNCALLED FUNCTION, IGNORED FOR OVERLAY PROCESS
    NAME:    fun_language/multi_menu

*** WARNING L57: UNCALLED FUNCTION, IGNORED FOR OVERLAY PROCESS
    NAME:    fun_menu_font/multi_menu

*** WARNING L57: UNCALLED FUNCTION, IGNORED FOR OVERLAY PROCESS
    NAME:    wave/WAVE

*** WARNING L57: UNCALLED FUNCTION, IGNORED FOR OVERLAY PROCESS
    NAME:    APP_AdcEnable/bsp_adc

*** WARNING L57: UNCALLED FUNCTION, IGNORED FOR OVERLAY PROCESS
    NAME:    APP_AdcCalibrate/bsp_adc

*** WARNING L57: UNCALLED FUNCTION, IGNORED FOR OVERLAY PROCESS
    NAME:    Get_ADC12bitResult/bsp_adc

*** WARNING L57: UNCALLED FUNCTION, IGNORED FOR OVERLAY PROCESS
    NAME:    Key_GPIO_Config/base_key

*** WARNING L57: UNCALLED FUNCTION, IGNORED FOR OVERLAY PROCESS
    NAME:    Timer1_init/TIME

*** WARNING L57: UNCALLED FUNCTION, IGNORED FOR OVERLAY PROCESS
    NAME:    Timer2_init/TIME

*** WARNING L57: UNCALLED FUNCTION, IGNORED FOR OVERLAY PROCESS
    NAME:    Timer3_init/TIME

*** WARNING L57: UNCALLED FUNCTION, IGNORED FOR OVERLAY PROCESS
    NAME:    Timer4_init/TIME

*** WARNING L57: UNCALLED FUNCTION, IGNORED FOR OVERLAY PROCESS
    NAME:    SPI_init/spi

*** WARNING L57: UNCALLED FUNCTION, IGNORED FOR OVERLAY PROCESS
    NAME:    pwm_init_blk/PWM

*** WARNING L57: UNCALLED FUNCTION, IGNORED FOR OVERLAY PROCESS
    NAME:    UpdatePwm/PWM

Program Size: data=8.6 edata+hdata=917 xdata=80 const=772 code=40139
L251 LINKER/LOCATER V4.66.93.0                                                        10/29/2024  08:37:11  PAGE 67


L251 RUN COMPLETE.  34 WARNING(S),  0 ERROR(S)
